
bootloader.elf:     file format elf32-littleriscv


Disassembly of section .text:

00040000 <_start>:
.section .text.start
.global _start

_start:
    /* Set up stack pointer (grows downward from 0x12000) */
    la sp, __stack_top
   40000:	00003117          	auipc	sp,0x3
   40004:	00010113          	mv	sp,sp

    /* Clear BSS section */
    la t0, __bss_start
   40008:	00002297          	auipc	t0,0x2
   4000c:	ff828293          	addi	t0,t0,-8 # 42000 <crc32_table>
    la t1, __bss_end
   40010:	00002317          	auipc	t1,0x2
   40014:	3f030313          	addi	t1,t1,1008 # 42400 <__bss_end>

00040018 <clear_bss>:
clear_bss:
    bge t0, t1, done_clear_bss
   40018:	0062d863          	bge	t0,t1,40028 <done_clear_bss>
    sw zero, 0(t0)
   4001c:	0002a023          	sw	zero,0(t0)
    addi t0, t0, 4
   40020:	00428293          	addi	t0,t0,4
    j clear_bss
   40024:	ff5ff06f          	j	40018 <clear_bss>

00040028 <done_clear_bss>:
done_clear_bss:

    /* Call bootloader main function */
    call bootloader_main
   40028:	00c000ef          	jal	ra,40034 <bootloader_main>

0004002c <loop_forever>:

    /* If bootloader returns, infinite loop (should never happen) */
loop_forever:
    j loop_forever
   4002c:	0000006f          	j	4002c <loop_forever>

00040030 <jump_to_firmware>:

/* Jump to user firmware at address 0x0 */
.global jump_to_firmware
jump_to_firmware:
    /* a0 contains the target address (should be 0x0) */
    jr a0
   40030:	00050067          	jr	a0

00040034 <bootloader_main>:
//=============================================================================

static uint32_t crc32_table[256];

static void crc32_init(void) {
    for (uint32_t i = 0; i < 256; i++) {
   40034:	00042537          	lui	a0,0x42
        uint32_t crc = i;
        for (int j = 0; j < 8; j++) {
            crc = (crc >> 1) ^ ((crc & 1) ? 0xEDB88320 : 0);
   40038:	edb88637          	lui	a2,0xedb88
   4003c:	00050313          	mv	t1,a0
    for (uint32_t i = 0; i < 256; i++) {
   40040:	00000593          	li	a1,0
   40044:	00050513          	mv	a0,a0
            crc = (crc >> 1) ^ ((crc & 1) ? 0xEDB88320 : 0);
   40048:	32060613          	addi	a2,a2,800 # edb88320 <__stack_top+0xedb45320>
    for (uint32_t i = 0; i < 256; i++) {
   4004c:	10000293          	li	t0,256

//=============================================================================
// Main Bootloader - Implements firmware_loader.v protocol
//=============================================================================

void bootloader_main(void) {
   40050:	00058793          	mv	a5,a1
   40054:	00800713          	li	a4,8
            crc = (crc >> 1) ^ ((crc & 1) ? 0xEDB88320 : 0);
   40058:	0017f693          	andi	a3,a5,1
        for (int j = 0; j < 8; j++) {
   4005c:	fff70713          	addi	a4,a4,-1
   40060:	0017d793          	srli	a5,a5,0x1
            crc = (crc >> 1) ^ ((crc & 1) ? 0xEDB88320 : 0);
   40064:	00068463          	beqz	a3,4006c <bootloader_main+0x38>
   40068:	00c7c7b3          	xor	a5,a5,a2
        for (int j = 0; j < 8; j++) {
   4006c:	fe0716e3          	bnez	a4,40058 <bootloader_main+0x24>
        crc32_table[i] = crc;
   40070:	00f52023          	sw	a5,0(a0) # 42000 <crc32_table>
    for (uint32_t i = 0; i < 256; i++) {
   40074:	00158593          	addi	a1,a1,1
   40078:	00450513          	addi	a0,a0,4
   4007c:	fc559ae3          	bne	a1,t0,40050 <bootloader_main+0x1c>

    // Initialize CRC32 lookup table
    crc32_init();

    // LED pattern: LED1 on = waiting for upload
    LED_CONTROL = 0x01;
   40080:	00100713          	li	a4,1
   40084:	800007b7          	lui	a5,0x80000
   40088:	00e7a823          	sw	a4,16(a5) # 80000010 <__stack_top+0x7ffbd010>

    // Step 1: Wait for 'R' (Ready) command
    while (1) {
        uint8_t cmd = uart_getc();
        if (cmd == 'R' || cmd == 'r') {
   4008c:	05200693          	li	a3,82
    while (!(UART_RX_STATUS & 1));  // Wait until data available
   40090:	80000737          	lui	a4,0x80000
   40094:	00c72783          	lw	a5,12(a4) # 8000000c <__stack_top+0x7ffbd00c>
   40098:	0017f793          	andi	a5,a5,1
   4009c:	fe078ce3          	beqz	a5,40094 <bootloader_main+0x60>
    return UART_RX_DATA & 0xFF;
   400a0:	00872783          	lw	a5,8(a4)
        if (cmd == 'R' || cmd == 'r') {
   400a4:	0df7f793          	andi	a5,a5,223
   400a8:	fed796e3          	bne	a5,a3,40094 <bootloader_main+0x60>
    while (UART_TX_STATUS & 1);  // Wait while busy
   400ac:	800007b7          	lui	a5,0x80000
   400b0:	0047a583          	lw	a1,4(a5) # 80000004 <__stack_top+0x7ffbd004>
   400b4:	0015f593          	andi	a1,a1,1
   400b8:	fe059ce3          	bnez	a1,400b0 <bootloader_main+0x7c>
    UART_TX_DATA = c;
   400bc:	04100713          	li	a4,65
   400c0:	00e7a023          	sw	a4,0(a5)
    // Step 2: Send ACK 'A' for Ready
    uart_putc('A');
    ack_char = 'B';  // Next ACK will be 'B'

    // LED pattern: LED2 on = downloading
    LED_CONTROL = 0x02;
   400c4:	00200713          	li	a4,2
   400c8:	00e7a823          	sw	a4,16(a5)
   400cc:	00000693          	li	a3,0
    while (!(UART_RX_STATUS & 1));  // Wait until data available
   400d0:	80000737          	lui	a4,0x80000

    // Step 3: Receive 4-byte packet size (little-endian)
    for (int i = 0; i < 4; i++) {
   400d4:	02000613          	li	a2,32
    while (!(UART_RX_STATUS & 1));  // Wait until data available
   400d8:	00c72783          	lw	a5,12(a4) # 8000000c <__stack_top+0x7ffbd00c>
   400dc:	0017f793          	andi	a5,a5,1
   400e0:	fe078ce3          	beqz	a5,400d8 <bootloader_main+0xa4>
    return UART_RX_DATA & 0xFF;
   400e4:	00872783          	lw	a5,8(a4)
        uint8_t byte = uart_getc();
        packet_size |= ((uint32_t)byte) << (i * 8);
   400e8:	0ff7f793          	andi	a5,a5,255
   400ec:	00d797b3          	sll	a5,a5,a3
    for (int i = 0; i < 4; i++) {
   400f0:	00868693          	addi	a3,a3,8
        packet_size |= ((uint32_t)byte) << (i * 8);
   400f4:	00f5e5b3          	or	a1,a1,a5
    for (int i = 0; i < 4; i++) {
   400f8:	fec690e3          	bne	a3,a2,400d8 <bootloader_main+0xa4>
    while (UART_TX_STATUS & 1);  // Wait while busy
   400fc:	800007b7          	lui	a5,0x80000
   40100:	0047a603          	lw	a2,4(a5) # 80000004 <__stack_top+0x7ffbd004>
   40104:	00167613          	andi	a2,a2,1
   40108:	fe061ce3          	bnez	a2,40100 <bootloader_main+0xcc>
    UART_TX_DATA = c;
   4010c:	04200713          	li	a4,66
   40110:	00e7a023          	sw	a4,0(a5)
    // Step 4: Send ACK 'B' for size received
    uart_putc('B');
    ack_char = 'C';  // Next ACK will be 'C'

    // Validate size
    if (packet_size == 0 || packet_size > MAX_FIRMWARE_SIZE) {
   40114:	000406b7          	lui	a3,0x40
   40118:	fff58713          	addi	a4,a1,-1
   4011c:	00d76663          	bltu	a4,a3,40128 <bootloader_main+0xf4>
        LED_CONTROL = 0x00;  // Turn off LEDs = error
   40120:	0007a823          	sw	zero,16(a5)
        while (1);  // Halt on error
   40124:	0000006f          	j	40124 <bootloader_main+0xf0>
void bootloader_main(void) {
   40128:	ff410113          	addi	sp,sp,-12 # 42ff4 <__bss_end+0xbf4>
   4012c:	00112423          	sw	ra,8(sp)
   40130:	00812223          	sw	s0,4(sp)
   40134:	00912023          	sw	s1,0(sp)
    ack_char = 'C';  // Next ACK will be 'C'
   40138:	04300293          	li	t0,67
    uint32_t calculated_crc = 0xFFFFFFFF;  // CRC32 initial value
   4013c:	fff00713          	li	a4,-1
    while (!(UART_RX_STATUS & 1));  // Wait until data available
   40140:	800006b7          	lui	a3,0x80000
        }

        // Send ACK after each chunk (C, D, E, ... Z, then wrap to A)
        uart_putc(ack_char);
        ack_char++;
        if (ack_char > 'Z') ack_char = 'A';  // Wrap around
   40144:	05a00393          	li	t2,90

        // Toggle LED1 to show progress
        if ((bytes_received / CHUNK_SIZE) & 1) {
            LED_CONTROL = 0x03;  // Both LEDs
        } else {
            LED_CONTROL = 0x02;  // LED2 only
   40148:	00200413          	li	s0,2
            LED_CONTROL = 0x03;  // Both LEDs
   4014c:	00300093          	li	ra,3
        while (chunk_bytes < CHUNK_SIZE && bytes_received < packet_size) {
   40150:	04060513          	addi	a0,a2,64
   40154:	02b67e63          	bgeu	a2,a1,40190 <bootloader_main+0x15c>
    while (!(UART_RX_STATUS & 1));  // Wait until data available
   40158:	00c6a783          	lw	a5,12(a3) # 8000000c <__stack_top+0x7ffbd00c>
   4015c:	0017f793          	andi	a5,a5,1
   40160:	fe078ce3          	beqz	a5,40158 <bootloader_main+0x124>
    return UART_RX_DATA & 0xFF;
   40164:	0086a783          	lw	a5,8(a3)
    return (crc >> 8) ^ crc32_table[(crc ^ byte) & 0xFF];
   40168:	00875493          	srli	s1,a4,0x8
            bytes_received++;
   4016c:	00160613          	addi	a2,a2,1
    return (crc >> 8) ^ crc32_table[(crc ^ byte) & 0xFF];
   40170:	00f74733          	xor	a4,a4,a5
   40174:	0ff77713          	andi	a4,a4,255
   40178:	00271713          	slli	a4,a4,0x2
    return UART_RX_DATA & 0xFF;
   4017c:	fef60fa3          	sb	a5,-1(a2)
    return (crc >> 8) ^ crc32_table[(crc ^ byte) & 0xFF];
   40180:	00e307b3          	add	a5,t1,a4
   40184:	0007a703          	lw	a4,0(a5)
   40188:	00e4c733          	xor	a4,s1,a4
        while (chunk_bytes < CHUNK_SIZE && bytes_received < packet_size) {
   4018c:	fca614e3          	bne	a2,a0,40154 <bootloader_main+0x120>
    while (UART_TX_STATUS & 1);  // Wait while busy
   40190:	0046a783          	lw	a5,4(a3)
   40194:	0017f793          	andi	a5,a5,1
   40198:	fe079ce3          	bnez	a5,40190 <bootloader_main+0x15c>
        ack_char++;
   4019c:	00128513          	addi	a0,t0,1
    UART_TX_DATA = c;
   401a0:	0056a023          	sw	t0,0(a3)
        ack_char++;
   401a4:	0ff57293          	andi	t0,a0,255
        if (ack_char > 'Z') ack_char = 'A';  // Wrap around
   401a8:	0053f463          	bgeu	t2,t0,401b0 <bootloader_main+0x17c>
   401ac:	04100293          	li	t0,65
        if ((bytes_received / CHUNK_SIZE) & 1) {
   401b0:	04067513          	andi	a0,a2,64
   401b4:	02050a63          	beqz	a0,401e8 <bootloader_main+0x1b4>
            LED_CONTROL = 0x03;  // Both LEDs
   401b8:	0016a823          	sw	ra,16(a3)
    while (bytes_received < packet_size) {
   401bc:	f8b66ae3          	bltu	a2,a1,40150 <bootloader_main+0x11c>
    while (!(UART_RX_STATUS & 1));  // Wait until data available
   401c0:	80000637          	lui	a2,0x80000
   401c4:	00c62683          	lw	a3,12(a2) # 8000000c <__stack_top+0x7ffbd00c>
   401c8:	0016f693          	andi	a3,a3,1
   401cc:	fe068ce3          	beqz	a3,401c4 <bootloader_main+0x190>
    return UART_RX_DATA & 0xFF;
   401d0:	00862683          	lw	a3,8(a2)
    // Finalize CRC32
    calculated_crc = ~calculated_crc;

    // Step 6: Wait for 'C' (CRC command)
    uint8_t crc_cmd = uart_getc();
    if (crc_cmd != 'C') {
   401d4:	04300593          	li	a1,67
   401d8:	0ff6f693          	andi	a3,a3,255
   401dc:	00b68c63          	beq	a3,a1,401f4 <bootloader_main+0x1c0>
        LED_CONTROL = 0x00;  // Error
   401e0:	00062823          	sw	zero,16(a2)
        while (1);
   401e4:	0000006f          	j	401e4 <bootloader_main+0x1b0>
            LED_CONTROL = 0x02;  // LED2 only
   401e8:	0086a823          	sw	s0,16(a3)
    while (bytes_received < packet_size) {
   401ec:	f6b662e3          	bltu	a2,a1,40150 <bootloader_main+0x11c>
   401f0:	fd1ff06f          	j	401c0 <bootloader_main+0x18c>
   401f4:	00000593          	li	a1,0
    while (!(UART_RX_STATUS & 1));  // Wait until data available
   401f8:	80000637          	lui	a2,0x80000
    }

    // Step 7: Receive 4-byte expected CRC (little-endian)
    expected_crc = 0;
    for (int i = 0; i < 4; i++) {
   401fc:	02000513          	li	a0,32
    while (!(UART_RX_STATUS & 1));  // Wait until data available
   40200:	00c62683          	lw	a3,12(a2) # 8000000c <__stack_top+0x7ffbd00c>
   40204:	0016f693          	andi	a3,a3,1
   40208:	fe068ce3          	beqz	a3,40200 <bootloader_main+0x1cc>
    return UART_RX_DATA & 0xFF;
   4020c:	00862683          	lw	a3,8(a2)
        uint8_t byte = uart_getc();
        expected_crc |= ((uint32_t)byte) << (i * 8);
   40210:	0ff6f693          	andi	a3,a3,255
   40214:	00b696b3          	sll	a3,a3,a1
    for (int i = 0; i < 4; i++) {
   40218:	00858593          	addi	a1,a1,8
        expected_crc |= ((uint32_t)byte) << (i * 8);
   4021c:	00d7e7b3          	or	a5,a5,a3
    for (int i = 0; i < 4; i++) {
   40220:	fea590e3          	bne	a1,a0,40200 <bootloader_main+0x1cc>
    while (UART_TX_STATUS & 1);  // Wait while busy
   40224:	80000637          	lui	a2,0x80000
   40228:	00462683          	lw	a3,4(a2) # 80000004 <__stack_top+0x7ffbd004>
   4022c:	0016f693          	andi	a3,a3,1
   40230:	fe069ce3          	bnez	a3,40228 <bootloader_main+0x1f4>
    UART_TX_DATA = c;
   40234:	00562023          	sw	t0,0(a2)
    while (UART_TX_STATUS & 1);  // Wait while busy
   40238:	80000637          	lui	a2,0x80000
   4023c:	00462683          	lw	a3,4(a2) # 80000004 <__stack_top+0x7ffbd004>
   40240:	0016f693          	andi	a3,a3,1
   40244:	fe069ce3          	bnez	a3,4023c <bootloader_main+0x208>
    calculated_crc = ~calculated_crc;
   40248:	fff74713          	not	a4,a4
    UART_TX_DATA = c;
   4024c:	0ff77693          	andi	a3,a4,255
   40250:	00d62023          	sw	a3,0(a2)
    while (UART_TX_STATUS & 1);  // Wait while busy
   40254:	800005b7          	lui	a1,0x80000
    // Step 8: Send ACK + calculated CRC back to host
    uart_putc(ack_char);  // Final ACK

    // Send calculated CRC (little-endian)
    uart_putc((calculated_crc >> 0) & 0xFF);
    uart_putc((calculated_crc >> 8) & 0xFF);
   40258:	00875693          	srli	a3,a4,0x8
    while (UART_TX_STATUS & 1);  // Wait while busy
   4025c:	0045a603          	lw	a2,4(a1) # 80000004 <__stack_top+0x7ffbd004>
   40260:	00167613          	andi	a2,a2,1
   40264:	fe061ce3          	bnez	a2,4025c <bootloader_main+0x228>
    UART_TX_DATA = c;
   40268:	0ff6f693          	andi	a3,a3,255
   4026c:	00d5a023          	sw	a3,0(a1)
    uart_putc((calculated_crc >> 16) & 0xFF);
   40270:	01075693          	srli	a3,a4,0x10
    while (UART_TX_STATUS & 1);  // Wait while busy
   40274:	800005b7          	lui	a1,0x80000
   40278:	0045a603          	lw	a2,4(a1) # 80000004 <__stack_top+0x7ffbd004>
   4027c:	00167613          	andi	a2,a2,1
   40280:	fe061ce3          	bnez	a2,40278 <bootloader_main+0x244>
    UART_TX_DATA = c;
   40284:	0ff6f693          	andi	a3,a3,255
   40288:	00d5a023          	sw	a3,0(a1)
    uart_putc((calculated_crc >> 24) & 0xFF);
   4028c:	01875593          	srli	a1,a4,0x18
    while (UART_TX_STATUS & 1);  // Wait while busy
   40290:	800006b7          	lui	a3,0x80000
   40294:	0046a603          	lw	a2,4(a3) # 80000004 <__stack_top+0x7ffbd004>
   40298:	00167613          	andi	a2,a2,1
   4029c:	fe061ce3          	bnez	a2,40294 <bootloader_main+0x260>
    UART_TX_DATA = c;
   402a0:	00b6a023          	sw	a1,0(a3)

    // Step 9: Verify CRC match
    if (calculated_crc != expected_crc) {
        LED_CONTROL = 0x00;  // Error - CRC mismatch
   402a4:	0006a823          	sw	zero,16(a3)
    if (calculated_crc != expected_crc) {
   402a8:	00f70463          	beq	a4,a5,402b0 <bootloader_main+0x27c>
        while (1);  // Halt on CRC error
   402ac:	0000006f          	j	402ac <bootloader_main+0x278>

    // Success! Turn off LEDs before jumping
    LED_CONTROL = 0x00;

    // Step 10: Jump to firmware at 0x0
    jump_to_firmware(FIRMWARE_BASE);
   402b0:	00000513          	li	a0,0
   402b4:	d7dff0ef          	jal	ra,40030 <jump_to_firmware>

    // Should never return
    while (1);
   402b8:	0000006f          	j	402b8 <bootloader_main+0x284>

Disassembly of section .bss:

00042000 <crc32_table>:
	...

Disassembly of section .riscv.attributes:

00000000 <.riscv.attributes>:
   0:	1b41                	addi	s6,s6,-16
   2:	0000                	unimp
   4:	7200                	flw	fs0,32(a2)
   6:	7369                	lui	t1,0xffffa
   8:	01007663          	bgeu	zero,a6,14 <__bootrom_size-0x2a8>
   c:	0011                	c.nop	4
   e:	0000                	unimp
  10:	0404                	addi	s1,sp,512
  12:	7205                	lui	tp,0xfffe1
  14:	3376                	fld	ft6,376(sp)
  16:	6532                	flw	fa0,12(sp)
  18:	7031                	c.lui	zero,0xfffec
  1a:	0039                	c.nop	14

Disassembly of section .comment:

00000000 <.comment>:
   0:	3a434347          	fmsub.d	ft6,ft6,ft4,ft7,rmm
   4:	2820                	fld	fs0,80(s0)
   6:	2029                	jal	10 <__bootrom_size-0x2ac>
   8:	3031                	jal	fffff814 <__stack_top+0xfffbc814>
   a:	322e                	fld	ft4,232(sp)
   c:	302e                	fld	ft0,232(sp)
	...

Disassembly of section .debug_line:

00000000 <.debug_line>:
   0:	006a                	c.slli	zero,0x1a
   2:	0000                	unimp
   4:	001e0003          	lb	zero,1(t3)
   8:	0000                	unimp
   a:	0101                	addi	sp,sp,0
   c:	000d0efb          	0xd0efb
  10:	0101                	addi	sp,sp,0
  12:	0101                	addi	sp,sp,0
  14:	0000                	unimp
  16:	0100                	addi	s0,sp,128
  18:	0000                	unimp
  1a:	0001                	nop
  1c:	72617473          	csrrci	s0,0x726,2
  20:	2e74                	fld	fa3,216(a2)
  22:	00000053          	fadd.s	ft0,ft0,ft0,rne
  26:	0000                	unimp
  28:	0500                	addi	s0,sp,640
  2a:	0002                	c.slli64	zero
  2c:	0400                	addi	s0,sp,512
  2e:	0300                	addi	s0,sp,384
  30:	0116                	slli	sp,sp,0x5
  32:	08090303          	lb	t1,128(s2)
  36:	0100                	addi	s0,sp,128
  38:	08090103          	lb	sp,128(s2)
  3c:	0100                	addi	s0,sp,128
  3e:	08090203          	lb	tp,128(s2)
  42:	0100                	addi	s0,sp,128
  44:	04090103          	lb	sp,64(s2)
  48:	0100                	addi	s0,sp,128
  4a:	04090103          	lb	sp,64(s2)
  4e:	0100                	addi	s0,sp,128
  50:	04090103          	lb	sp,64(s2)
  54:	0100                	addi	s0,sp,128
  56:	04090403          	lb	s0,64(s2)
  5a:	0100                	addi	s0,sp,128
  5c:	04090403          	lb	s0,64(s2)
  60:	0100                	addi	s0,sp,128
  62:	04090603          	lb	a2,64(s2)
  66:	0100                	addi	s0,sp,128
  68:	0409                	addi	s0,s0,2
  6a:	0000                	unimp
  6c:	0101                	addi	sp,sp,0
  6e:	0901                	addi	s2,s2,0
  70:	0000                	unimp
  72:	00630003          	lb	zero,6(t1) # ffffa006 <__stack_top+0xfffb7006>
  76:	0000                	unimp
  78:	0101                	addi	sp,sp,0
  7a:	000d0efb          	0xd0efb
  7e:	0101                	addi	sp,sp,0
  80:	0101                	addi	sp,sp,0
  82:	0000                	unimp
  84:	0100                	addi	s0,sp,128
  86:	0000                	unimp
  88:	2f01                	jal	798 <__bootrom_size+0x4dc>
  8a:	7375                	lui	t1,0xffffd
  8c:	2f72                	fld	ft10,280(sp)
  8e:	696c                	flw	fa1,84(a0)
  90:	2f62                	fld	ft10,24(sp)
  92:	2f636367          	0x2f636367
  96:	6972                	flw	fs2,28(sp)
  98:	36766373          	csrrsi	t1,0x367,12
  9c:	2d34                	fld	fa3,88(a0)
  9e:	6e75                	lui	t3,0x1d
  a0:	776f6e6b          	0x776f6e6b
  a4:	2d6e                	fld	fs10,216(sp)
  a6:	6c65                	lui	s8,0x19
  a8:	2f66                	fld	ft10,88(sp)
  aa:	3031                	jal	fffff8b6 <__stack_top+0xfffbc8b6>
  ac:	322e                	fld	ft4,232(sp)
  ae:	302e                	fld	ft0,232(sp)
  b0:	636e692f          	0x636e692f
  b4:	756c                	flw	fa1,108(a0)
  b6:	6564                	flw	fs1,76(a0)
  b8:	0000                	unimp
  ba:	6f62                	flw	ft10,24(sp)
  bc:	6f6c746f          	jal	s0,c77b2 <__stack_top+0x847b2>
  c0:	6461                	lui	s0,0x18
  c2:	7265                	lui	tp,0xffff9
  c4:	632e                	flw	ft6,200(sp)
  c6:	0000                	unimp
  c8:	0000                	unimp
  ca:	69647473          	csrrci	s0,0x696,8
  ce:	746e                	flw	fs0,248(sp)
  d0:	672d                	lui	a4,0xb
  d2:	682e6363          	bltu	t3,sp,758 <__bootrom_size+0x49c>
  d6:	0100                	addi	s0,sp,128
  d8:	0000                	unimp
  da:	0500                	addi	s0,sp,640
  dc:	001c                	0x1c
  de:	0205                	addi	tp,tp,1
  e0:	0034                	addi	a3,sp,8
  e2:	0004                	0x4
  e4:	0100d803          	lhu	a6,16(ra)
  e8:	0505                	addi	a0,a0,1
  ea:	00090103          	lb	sp,0(s2)
  ee:	0100                	addi	s0,sp,128
  f0:	00090103          	lb	sp,0(s2)
  f4:	0100                	addi	s0,sp,128
  f6:	00090103          	lb	sp,0(s2)
  fa:	0100                	addi	s0,sp,128
  fc:	00090103          	lb	sp,0(s2)
 100:	0100                	addi	s0,sp,128
 102:	00090103          	lb	sp,0(s2)
 106:	0100                	addi	s0,sp,128
 108:	00090103          	lb	sp,0(s2)
 10c:	0100                	addi	s0,sp,128
 10e:	00090103          	lb	sp,0(s2)
 112:	0100                	addi	s0,sp,128
 114:	00090303          	lb	t1,0(s2)
 118:	0100                	addi	s0,sp,128
 11a:	00096403          	0x96403
 11e:	0100                	addi	s0,sp,128
 120:	0a05                	addi	s4,s4,1
 122:	00090003          	lb	zero,0(s2)
 126:	0100                	addi	s0,sp,128
 128:	1a05                	addi	s4,s4,-31
 12a:	00090003          	lb	zero,0(s2)
 12e:	0100                	addi	s0,sp,128
 130:	1105                	addi	sp,sp,-31
 132:	0306                	slli	t1,t1,0x1
 134:	00040903          	lb	s2,0(s0) # 18000 <__bootrom_size+0x17d44>
 138:	0501                	addi	a0,a0,0
 13a:	097d0313          	addi	t1,s10,151
 13e:	0008                	0x8
 140:	0501                	addi	a0,a0,0
 142:	0311                	addi	t1,t1,4
 144:	00080903          	lb	s2,0(a6)
 148:	0501                	addi	a0,a0,0
 14a:	0305                	addi	t1,t1,1
 14c:	097d                	addi	s2,s2,31
 14e:	0004                	0x4
 150:	0501                	addi	a0,a0,0
 152:	0619                	addi	a2,a2,6
 154:	04090203          	lb	tp,64(s2)
 158:	0100                	addi	s0,sp,128
 15a:	1c05                	addi	s8,s8,-31
 15c:	0306                	slli	t1,t1,0x1
 15e:	0910                	addi	a2,sp,144
 160:	0000                	unimp
 162:	0501                	addi	a0,a0,0
 164:	060d                	addi	a2,a2,3
 166:	08097103          	0x8097103
 16a:	0100                	addi	s0,sp,128
 16c:	2005                	jal	18c <__bootrom_size-0x130>
 16e:	00097f03          	0x97f03
 172:	0100                	addi	s0,sp,128
 174:	1905                	addi	s2,s2,-31
 176:	00090003          	lb	zero,0(s2)
 17a:	0100                	addi	s0,sp,128
 17c:	2605                	jal	49c <__bootrom_size+0x1e0>
 17e:	0306                	slli	t1,t1,0x1
 180:	0901                	addi	s2,s2,0
 182:	0000                	unimp
 184:	0501                	addi	a0,a0,0
 186:	0309                	addi	t1,t1,2
 188:	097f                	0x97f
 18a:	0004                	0x4
 18c:	0501                	addi	a0,a0,0
 18e:	0338                	addi	a4,sp,392
 190:	0901                	addi	s2,s2,0
 192:	0008                	0x8
 194:	0501                	addi	a0,a0,0
 196:	0311                	addi	t1,t1,4
 198:	0900                	addi	s0,sp,144
 19a:	0004                	0x4
 19c:	0501                	addi	a0,a0,0
 19e:	0309                	addi	t1,t1,2
 1a0:	097f                	0x97f
 1a2:	0004                	0x4
 1a4:	0601                	addi	a2,a2,0
 1a6:	04090303          	lb	t1,64(s2)
 1aa:	0100                	addi	s0,sp,128
 1ac:	1805                	addi	a6,a6,-31
 1ae:	0306                	slli	t1,t1,0x1
 1b0:	0900                	addi	s0,sp,144
 1b2:	0000                	unimp
 1b4:	0501                	addi	a0,a0,0
 1b6:	7b030623          	sb	a6,1964(t1) # ffffd7ac <__stack_top+0xfffba7ac>
 1ba:	0409                	addi	s0,s0,2
 1bc:	0100                	addi	s0,sp,128
 1be:	2405                	jal	3de <__bootrom_size+0x122>
 1c0:	0306                	slli	t1,t1,0x1
 1c2:	0900                	addi	s0,sp,144
 1c4:	0000                	unimp
 1c6:	0501                	addi	a0,a0,0
 1c8:	061a                	slli	a2,a2,0x6
 1ca:	04090003          	lb	zero,64(s2)
 1ce:	0100                	addi	s0,sp,128
 1d0:	0505                	addi	a0,a0,1
 1d2:	0306                	slli	t1,t1,0x1
 1d4:	0900                	addi	s0,sp,144
 1d6:	0000                	unimp
 1d8:	0601                	addi	a2,a2,0
 1da:	08091f03          	lh	t5,128(s2)
 1de:	0100                	addi	s0,sp,128
 1e0:	1105                	addi	sp,sp,-31
 1e2:	0306                	slli	t1,t1,0x1
 1e4:	0900                	addi	s0,sp,144
 1e6:	0000                	unimp
 1e8:	0501                	addi	a0,a0,0
 1ea:	030c                	addi	a1,sp,384
 1ec:	0905                	addi	s2,s2,1
 1ee:	000c                	0xc
 1f0:	0501                	addi	a0,a0,0
 1f2:	030e                	slli	t1,t1,0x3
 1f4:	0951                	addi	s2,s2,20
 1f6:	0004                	0x4
 1f8:	0501                	addi	a0,a0,0
 1fa:	0622                	slli	a2,a2,0x8
 1fc:	04090003          	lb	zero,64(s2)
 200:	0100                	addi	s0,sp,128
 202:	0b05                	addi	s6,s6,1
 204:	00090003          	lb	zero,0(s2)
 208:	0100                	addi	s0,sp,128
 20a:	0e05                	addi	t3,t3,1
 20c:	0306                	slli	t1,t1,0x1
 20e:	0900                	addi	s0,sp,144
 210:	0000                	unimp
 212:	0501                	addi	a0,a0,0
 214:	031d                	addi	t1,t1,7
 216:	0900                	addi	s0,sp,144
 218:	0004                	0x4
 21a:	0501                	addi	a0,a0,0
 21c:	0900030b          	0x900030b
 220:	0004                	0x4
 222:	0501                	addi	a0,a0,0
 224:	0605                	addi	a2,a2,1
 226:	04090103          	lb	sp,64(s2)
 22a:	0100                	addi	s0,sp,128
 22c:	0c05                	addi	s8,s8,1
 22e:	0306                	slli	t1,t1,0x1
 230:	0900                	addi	s0,sp,144
 232:	0000                	unimp
 234:	0501                	addi	a0,a0,0
 236:	0609                	addi	a2,a2,2
 238:	04092e03          	lw	t3,64(s2)
 23c:	0100                	addi	s0,sp,128
 23e:	0c05                	addi	s8,s8,1
 240:	0306                	slli	t1,t1,0x1
 242:	0900                	addi	s0,sp,144
 244:	0000                	unimp
 246:	0301                	addi	t1,t1,0
 248:	094c                	addi	a1,sp,148
 24a:	0008                	0x8
 24c:	0501                	addi	a0,a0,0
 24e:	061f 0003 0409      	0x4090003061f
 254:	0100                	addi	s0,sp,128
 256:	0b05                	addi	s6,s6,1
 258:	00090003          	lb	zero,0(s2)
 25c:	0100                	addi	s0,sp,128
 25e:	0c05                	addi	s8,s8,1
 260:	0306                	slli	t1,t1,0x1
 262:	0900                	addi	s0,sp,144
 264:	0000                	unimp
 266:	0501                	addi	a0,a0,0
 268:	0900031b          	0x900031b
 26c:	0004                	0x4
 26e:	0501                	addi	a0,a0,0
 270:	0900030b          	0x900030b
 274:	0004                	0x4
 276:	0501                	addi	a0,a0,0
 278:	0605                	addi	a2,a2,1
 27a:	04090103          	lb	sp,64(s2)
 27e:	0100                	addi	s0,sp,128
 280:	1205                	addi	tp,tp,-31
 282:	0306                	slli	t1,t1,0x1
 284:	0900                	addi	s0,sp,144
 286:	0000                	unimp
 288:	0501                	addi	a0,a0,0
 28a:	0605                	addi	a2,a2,1
 28c:	08093a03          	0x8093a03
 290:	0100                	addi	s0,sp,128
 292:	00090303          	lb	t1,0(s2)
 296:	0100                	addi	s0,sp,128
 298:	1105                	addi	sp,sp,-31
 29a:	0306                	slli	t1,t1,0x1
 29c:	0900                	addi	s0,sp,144
 29e:	0000                	unimp
 2a0:	0501                	addi	a0,a0,0
 2a2:	0605                	addi	a2,a2,1
 2a4:	08090303          	lb	t1,128(s2)
 2a8:	0100                	addi	s0,sp,128
 2aa:	0a05                	addi	s4,s4,1
 2ac:	00090003          	lb	zero,0(s2)
 2b0:	0100                	addi	s0,sp,128
 2b2:	1505                	addi	a0,a0,-31
 2b4:	00090003          	lb	zero,0(s2)
 2b8:	0100                	addi	s0,sp,128
 2ba:	1105                	addi	sp,sp,-31
 2bc:	0306                	slli	t1,t1,0x1
 2be:	097d                	addi	s2,s2,31
 2c0:	0000                	unimp
 2c2:	0501                	addi	a0,a0,0
 2c4:	030e                	slli	t1,t1,0x3
 2c6:	00040947          	fmsub.s	fs2,fs0,ft0,ft0,rne
 2ca:	0501                	addi	a0,a0,0
 2cc:	0305                	addi	t1,t1,1
 2ce:	093c                	addi	a5,sp,152
 2d0:	0004                	0x4
 2d2:	0501                	addi	a0,a0,0
 2d4:	0622                	slli	a2,a2,0x8
 2d6:	04094403          	lbu	s0,64(s2)
 2da:	0100                	addi	s0,sp,128
 2dc:	0b05                	addi	s6,s6,1
 2de:	00090003          	lb	zero,0(s2)
 2e2:	0100                	addi	s0,sp,128
 2e4:	0e05                	addi	t3,t3,1
 2e6:	0306                	slli	t1,t1,0x1
 2e8:	0900                	addi	s0,sp,144
 2ea:	0000                	unimp
 2ec:	0501                	addi	a0,a0,0
 2ee:	031d                	addi	t1,t1,7
 2f0:	0900                	addi	s0,sp,144
 2f2:	0004                	0x4
 2f4:	0501                	addi	a0,a0,0
 2f6:	0900030b          	0x900030b
 2fa:	0004                	0x4
 2fc:	0501                	addi	a0,a0,0
 2fe:	0605                	addi	a2,a2,1
 300:	04090103          	lb	sp,64(s2)
 304:	0100                	addi	s0,sp,128
 306:	0c05                	addi	s8,s8,1
 308:	0306                	slli	t1,t1,0x1
 30a:	0900                	addi	s0,sp,144
 30c:	0000                	unimp
 30e:	0501                	addi	a0,a0,0
 310:	0609                	addi	a2,a2,2
 312:	04093d03          	0x4093d03
 316:	0100                	addi	s0,sp,128
 318:	2905                	jal	748 <__bootrom_size+0x48c>
 31a:	0306                	slli	t1,t1,0x1
 31c:	0900                	addi	s0,sp,144
 31e:	0000                	unimp
 320:	0501                	addi	a0,a0,0
 322:	0305                	addi	t1,t1,1
 324:	097e                	slli	s2,s2,0x1f
 326:	0008                	0x8
 328:	0501                	addi	a0,a0,0
 32a:	0315                	addi	t1,t1,5
 32c:	0902                	c.slli64	s2
 32e:	0004                	0x4
 330:	0501                	addi	a0,a0,0
 332:	061c                	addi	a5,sp,768
 334:	04097e03          	0x4097e03
 338:	0100                	addi	s0,sp,128
 33a:	1505                	addi	a0,a0,-31
 33c:	00090003          	lb	zero,0(s2)
 340:	0100                	addi	s0,sp,128
 342:	0505                	addi	a0,a0,1
 344:	0306                	slli	t1,t1,0x1
 346:	0900                	addi	s0,sp,144
 348:	0000                	unimp
 34a:	0501                	addi	a0,a0,0
 34c:	030c                	addi	a1,sp,384
 34e:	04097fbf 1f050100 	0x1f05010004097fbf
 356:	0306                	slli	t1,t1,0x1
 358:	0900                	addi	s0,sp,144
 35a:	0004                	0x4
 35c:	0501                	addi	a0,a0,0
 35e:	0900030b          	0x900030b
 362:	0000                	unimp
 364:	0501                	addi	a0,a0,0
 366:	060c                	addi	a1,sp,768
 368:	00090003          	lb	zero,0(s2)
 36c:	0100                	addi	s0,sp,128
 36e:	1b05                	addi	s6,s6,-31
 370:	04090003          	lb	zero,64(s2)
 374:	0100                	addi	s0,sp,128
 376:	0b05                	addi	s6,s6,1
 378:	04090003          	lb	zero,64(s2)
 37c:	0100                	addi	s0,sp,128
 37e:	0505                	addi	a0,a0,1
 380:	0306                	slli	t1,t1,0x1
 382:	0901                	addi	s2,s2,0
 384:	0004                	0x4
 386:	0501                	addi	a0,a0,0
 388:	0612                	slli	a2,a2,0x4
 38a:	00090003          	lb	zero,0(s2)
 38e:	0100                	addi	s0,sp,128
 390:	0505                	addi	a0,a0,1
 392:	0306                	slli	t1,t1,0x1
 394:	080900c7          	fmsub.s	ft1,fs2,ft0,ft1,rne
 398:	0100                	addi	s0,sp,128
 39a:	00090303          	lb	t1,0(s2)
 39e:	0100                	addi	s0,sp,128
 3a0:	0805                	addi	a6,a6,1
 3a2:	0306                	slli	t1,t1,0x1
 3a4:	0900                	addi	s0,sp,144
 3a6:	0000                	unimp
 3a8:	0501                	addi	a0,a0,0
 3aa:	031a                	slli	t1,t1,0x6
 3ac:	0900                	addi	s0,sp,144
 3ae:	0004                	0x4
 3b0:	0501                	addi	a0,a0,0
 3b2:	0308                	addi	a0,sp,384
 3b4:	0900                	addi	s0,sp,144
 3b6:	0004                	0x4
 3b8:	0501                	addi	a0,a0,0
 3ba:	0609                	addi	a2,a2,2
 3bc:	04090103          	lb	sp,64(s2)
 3c0:	0100                	addi	s0,sp,128
 3c2:	1505                	addi	a0,a0,-31
 3c4:	0306                	slli	t1,t1,0x1
 3c6:	0900                	addi	s0,sp,144
 3c8:	0000                	unimp
 3ca:	0501                	addi	a0,a0,0
 3cc:	0009                	c.nop	2
 3ce:	0402                	c.slli64	s0
 3d0:	0601                	addi	a2,a2,0
 3d2:	04090103          	lb	sp,64(s2)
 3d6:	0100                	addi	s0,sp,128
 3d8:	1205                	addi	tp,tp,-31
 3da:	0200                	addi	s0,sp,256
 3dc:	0104                	addi	s1,sp,128
 3de:	00090003          	lb	zero,0(s2)
 3e2:	0100                	addi	s0,sp,128
 3e4:	0f05                	addi	t5,t5,1
 3e6:	0200                	addi	s0,sp,256
 3e8:	0104                	addi	s1,sp,128
 3ea:	00090003          	lb	zero,0(s2)
 3ee:	0100                	addi	s0,sp,128
 3f0:	0905                	addi	s2,s2,1
 3f2:	0200                	addi	s0,sp,256
 3f4:	0104                	addi	s1,sp,128
 3f6:	00090003          	lb	zero,0(s2)
 3fa:	0100                	addi	s0,sp,128
 3fc:	1205                	addi	tp,tp,-31
 3fe:	0200                	addi	s0,sp,256
 400:	0104                	addi	s1,sp,128
 402:	00090003          	lb	zero,0(s2)
 406:	0100                	addi	s0,sp,128
 408:	0f05                	addi	t5,t5,1
 40a:	0200                	addi	s0,sp,256
 40c:	0104                	addi	s1,sp,128
 40e:	00090003          	lb	zero,0(s2)
 412:	0100                	addi	s0,sp,128
 414:	1c05                	addi	s8,s8,-31
 416:	0306                	slli	t1,t1,0x1
 418:	0955                	addi	s2,s2,21
 41a:	0004                	0x4
 41c:	0501                	addi	a0,a0,0
 41e:	030e                	slli	t1,t1,0x3
 420:	0926                	slli	s2,s2,0x9
 422:	0010                	0x10
 424:	0301                	addi	t1,t1,0
 426:	095f 0004 0301      	0x3010004095f
 42c:	095e                	slli	s2,s2,0x17
 42e:	0004                	0x4
 430:	0501                	addi	a0,a0,0
 432:	030c                	addi	a1,sp,384
 434:	00de                	slli	ra,ra,0x17
 436:	0409                	addi	s0,s0,2
 438:	0100                	addi	s0,sp,128
 43a:	1905                	addi	s2,s2,-31
 43c:	04090603          	lb	a2,64(s2)
 440:	0100                	addi	s0,sp,128
 442:	04097e03          	0x4097e03
 446:	0100                	addi	s0,sp,128
 448:	0f05                	addi	t5,t5,1
 44a:	0306                	slli	t1,t1,0x1
 44c:	096e                	slli	s2,s2,0x1b
 44e:	0004                	0x4
 450:	0501                	addi	a0,a0,0
 452:	0029                	c.nop	10
 454:	0402                	c.slli64	s0
 456:	0601                	addi	a2,a2,0
 458:	04090003          	lb	zero,64(s2)
 45c:	0100                	addi	s0,sp,128
 45e:	2205                	jal	57e <__bootrom_size+0x2c2>
 460:	0306                	slli	t1,t1,0x1
 462:	7fb0                	flw	fa2,120(a5)
 464:	0409                	addi	s0,s0,2
 466:	0100                	addi	s0,sp,128
 468:	0b05                	addi	s6,s6,1
 46a:	00090003          	lb	zero,0(s2)
 46e:	0100                	addi	s0,sp,128
 470:	0e05                	addi	t3,t3,1
 472:	0306                	slli	t1,t1,0x1
 474:	0900                	addi	s0,sp,144
 476:	0000                	unimp
 478:	0501                	addi	a0,a0,0
 47a:	031d                	addi	t1,t1,7
 47c:	0900                	addi	s0,sp,144
 47e:	0004                	0x4
 480:	0501                	addi	a0,a0,0
 482:	0900030b          	0x900030b
 486:	0004                	0x4
 488:	0501                	addi	a0,a0,0
 48a:	0605                	addi	a2,a2,1
 48c:	04090103          	lb	sp,64(s2)
 490:	0100                	addi	s0,sp,128
 492:	0c05                	addi	s8,s8,1
 494:	0306                	slli	t1,t1,0x1
 496:	0900                	addi	s0,sp,144
 498:	0000                	unimp
 49a:	0501                	addi	a0,a0,0
 49c:	060d                	addi	a2,a2,3
 49e:	0900d103          	lhu	sp,144(ra)
 4a2:	0004                	0x4
 4a4:	0501                	addi	a0,a0,0
 4a6:	0611                	addi	a2,a2,4
 4a8:	00094403          	lbu	s0,0(s2)
 4ac:	0100                	addi	s0,sp,128
 4ae:	1b05                	addi	s6,s6,-31
 4b0:	0900c103          	lbu	sp,144(ra)
 4b4:	0004                	0x4
 4b6:	0501                	addi	a0,a0,0
 4b8:	032a                	slli	t1,t1,0xa
 4ba:	04097fbf 32050100 	0x3205010004097fbf
 4c2:	04090003          	lb	zero,64(s2)
 4c6:	0100                	addi	s0,sp,128
 4c8:	2405                	jal	6e8 <__bootrom_size+0x42c>
 4ca:	04090003          	lb	zero,64(s2)
 4ce:	0100                	addi	s0,sp,128
 4d0:	1905                	addi	s2,s2,-31
 4d2:	04096b03          	0x4096b03
 4d6:	0100                	addi	s0,sp,128
 4d8:	0d05                	addi	s10,s10,1
 4da:	0306                	slli	t1,t1,0x1
 4dc:	00d4                	addi	a3,sp,68
 4de:	0409                	addi	s0,s0,2
 4e0:	0100                	addi	s0,sp,128
 4e2:	0505                	addi	a0,a0,1
 4e4:	00094103          	lbu	sp,0(s2)
 4e8:	0100                	addi	s0,sp,128
 4ea:	2405                	jal	70a <__bootrom_size+0x44e>
 4ec:	0306                	slli	t1,t1,0x1
 4ee:	0900                	addi	s0,sp,144
 4f0:	0000                	unimp
 4f2:	0501                	addi	a0,a0,0
 4f4:	09000317          	auipc	t1,0x9000
 4f8:	0004                	0x4
 4fa:	0501                	addi	a0,a0,0
 4fc:	060d                	addi	a2,a2,3
 4fe:	0900c103          	lbu	sp,144(ra)
 502:	0008                	0x8
 504:	0301                	addi	t1,t1,0
 506:	0901                	addi	s2,s2,0
 508:	0000                	unimp
 50a:	0501                	addi	a0,a0,0
 50c:	0978030f          	0x978030f
 510:	0000                	unimp
 512:	0501                	addi	a0,a0,0
 514:	031f 7fab 0409      	0x4097fab031f
 51a:	0100                	addi	s0,sp,128
 51c:	0b05                	addi	s6,s6,1
 51e:	00090003          	lb	zero,0(s2)
 522:	0100                	addi	s0,sp,128
 524:	0c05                	addi	s8,s8,1
 526:	0306                	slli	t1,t1,0x1
 528:	0900                	addi	s0,sp,144
 52a:	0000                	unimp
 52c:	0501                	addi	a0,a0,0
 52e:	0900031b          	0x900031b
 532:	0004                	0x4
 534:	0501                	addi	a0,a0,0
 536:	0900030b          	0x900030b
 53a:	0004                	0x4
 53c:	0501                	addi	a0,a0,0
 53e:	0605                	addi	a2,a2,1
 540:	04090103          	lb	sp,64(s2)
 544:	0100                	addi	s0,sp,128
 546:	1105                	addi	sp,sp,-31
 548:	0306                	slli	t1,t1,0x1
 54a:	00e1                	addi	ra,ra,24
 54c:	0009                	c.nop	2
 54e:	0100                	addi	s0,sp,128
 550:	1205                	addi	tp,tp,-31
 552:	097f9f03          	lh	t5,151(t6)
 556:	0004                	0x4
 558:	0501                	addi	a0,a0,0
 55a:	0609                	addi	a2,a2,2
 55c:	0900e103          	0x900e103
 560:	0004                	0x4
 562:	0501                	addi	a0,a0,0
 564:	0611                	addi	a2,a2,4
 566:	00090003          	lb	zero,0(s2)
 56a:	0100                	addi	s0,sp,128
 56c:	0905                	addi	s2,s2,1
 56e:	0306                	slli	t1,t1,0x1
 570:	0901                	addi	s2,s2,0
 572:	0004                	0x4
 574:	0501                	addi	a0,a0,0
 576:	060c                	addi	a1,sp,768
 578:	00090003          	lb	zero,0(s2)
 57c:	0100                	addi	s0,sp,128
 57e:	2605                	jal	89e <__bootrom_size+0x5e2>
 580:	04090003          	lb	zero,64(s2)
 584:	0100                	addi	s0,sp,128
 586:	0905                	addi	s2,s2,1
 588:	0306                	slli	t1,t1,0x1
 58a:	00040903          	lb	s2,0(s0)
 58e:	0501                	addi	a0,a0,0
 590:	060c                	addi	a1,sp,768
 592:	00090003          	lb	zero,0(s2)
 596:	0100                	addi	s0,sp,128
 598:	0d05                	addi	s10,s10,1
 59a:	0306                	slli	t1,t1,0x1
 59c:	0901                	addi	s2,s2,0
 59e:	0008                	0x8
 5a0:	0501                	addi	a0,a0,0
 5a2:	0619                	addi	a2,a2,6
 5a4:	00090003          	lb	zero,0(s2)
 5a8:	0100                	addi	s0,sp,128
 5aa:	0b05                	addi	s6,s6,1
 5ac:	0306                	slli	t1,t1,0x1
 5ae:	096a                	slli	s2,s2,0x1a
 5b0:	0004                	0x4
 5b2:	0501                	addi	a0,a0,0
 5b4:	060e                	slli	a2,a2,0x3
 5b6:	097fb403          	0x97fb403
 5ba:	0004                	0x4
 5bc:	0501                	addi	a0,a0,0
 5be:	0622                	slli	a2,a2,0x8
 5c0:	04090003          	lb	zero,64(s2)
 5c4:	0100                	addi	s0,sp,128
 5c6:	0b05                	addi	s6,s6,1
 5c8:	00090003          	lb	zero,0(s2)
 5cc:	0100                	addi	s0,sp,128
 5ce:	0e05                	addi	t3,t3,1
 5d0:	0306                	slli	t1,t1,0x1
 5d2:	0900                	addi	s0,sp,144
 5d4:	0000                	unimp
 5d6:	0501                	addi	a0,a0,0
 5d8:	031d                	addi	t1,t1,7
 5da:	0900                	addi	s0,sp,144
 5dc:	0004                	0x4
 5de:	0501                	addi	a0,a0,0
 5e0:	0900030b          	0x900030b
 5e4:	0004                	0x4
 5e6:	0501                	addi	a0,a0,0
 5e8:	0605                	addi	a2,a2,1
 5ea:	04090103          	lb	sp,64(s2)
 5ee:	0100                	addi	s0,sp,128
 5f0:	0c05                	addi	s8,s8,1
 5f2:	0306                	slli	t1,t1,0x1
 5f4:	0900                	addi	s0,sp,144
 5f6:	0000                	unimp
 5f8:	0501                	addi	a0,a0,0
 5fa:	0605                	addi	a2,a2,1
 5fc:	0900ec03          	0x900ec03
 600:	0004                	0x4
 602:	0501                	addi	a0,a0,0
 604:	0608                	addi	a0,sp,768
 606:	00090003          	lb	zero,0(s2)
 60a:	0100                	addi	s0,sp,128
 60c:	0905                	addi	s2,s2,1
 60e:	0306                	slli	t1,t1,0x1
 610:	0901                	addi	s2,s2,0
 612:	000c                	0xc
 614:	0501                	addi	a0,a0,0
 616:	0615                	addi	a2,a2,5
 618:	00090003          	lb	zero,0(s2)
 61c:	0100                	addi	s0,sp,128
 61e:	0905                	addi	s2,s2,1
 620:	0200                	addi	s0,sp,256
 622:	0204                	addi	s1,sp,256
 624:	0306                	slli	t1,t1,0x1
 626:	0901                	addi	s2,s2,0
 628:	0004                	0x4
 62a:	0501                	addi	a0,a0,0
 62c:	0012                	c.slli	zero,0x4
 62e:	0402                	c.slli64	s0
 630:	0302                	c.slli64	t1
 632:	0900                	addi	s0,sp,144
 634:	0000                	unimp
 636:	0501                	addi	a0,a0,0
 638:	0402000f          	0x402000f
 63c:	0302                	c.slli64	t1
 63e:	0900                	addi	s0,sp,144
 640:	0000                	unimp
 642:	0501                	addi	a0,a0,0
 644:	0009                	c.nop	2
 646:	0402                	c.slli64	s0
 648:	0302                	c.slli64	t1
 64a:	0900                	addi	s0,sp,144
 64c:	0000                	unimp
 64e:	0501                	addi	a0,a0,0
 650:	0012                	c.slli	zero,0x4
 652:	0402                	c.slli64	s0
 654:	0302                	c.slli64	t1
 656:	0900                	addi	s0,sp,144
 658:	0000                	unimp
 65a:	0501                	addi	a0,a0,0
 65c:	0402000f          	0x402000f
 660:	0302                	c.slli64	t1
 662:	0900                	addi	s0,sp,144
 664:	0000                	unimp
 666:	0501                	addi	a0,a0,0
 668:	030d                	addi	t1,t1,3
 66a:	0975                	addi	s2,s2,29
 66c:	0004                	0x4
 66e:	0501                	addi	a0,a0,0
 670:	0619                	addi	a2,a2,6
 672:	00090003          	lb	zero,0(s2)
 676:	0100                	addi	s0,sp,128
 678:	0b05                	addi	s6,s6,1
 67a:	0306                	slli	t1,t1,0x1
 67c:	0968                	addi	a0,sp,156
 67e:	0004                	0x4
 680:	0501                	addi	a0,a0,0
 682:	060e                	slli	a2,a2,0x3
 684:	097fb403          	0x97fb403
 688:	000c                	0xc
 68a:	0501                	addi	a0,a0,0
 68c:	0305                	addi	t1,t1,1
 68e:	00f4                	addi	a3,sp,76
 690:	0409                	addi	s0,s0,2
 692:	0100                	addi	s0,sp,128
 694:	2205                	jal	7b4 <__bootrom_size+0x4f8>
 696:	0306                	slli	t1,t1,0x1
 698:	7f8c                	flw	fa1,56(a5)
 69a:	0409                	addi	s0,s0,2
 69c:	0100                	addi	s0,sp,128
 69e:	0b05                	addi	s6,s6,1
 6a0:	00090003          	lb	zero,0(s2)
 6a4:	0100                	addi	s0,sp,128
 6a6:	0e05                	addi	t3,t3,1
 6a8:	0306                	slli	t1,t1,0x1
 6aa:	0900                	addi	s0,sp,144
 6ac:	0000                	unimp
 6ae:	0501                	addi	a0,a0,0
 6b0:	031d                	addi	t1,t1,7
 6b2:	0900                	addi	s0,sp,144
 6b4:	0004                	0x4
 6b6:	0501                	addi	a0,a0,0
 6b8:	0900030b          	0x900030b
 6bc:	0004                	0x4
 6be:	0501                	addi	a0,a0,0
 6c0:	0605                	addi	a2,a2,1
 6c2:	04090103          	lb	sp,64(s2)
 6c6:	0100                	addi	s0,sp,128
 6c8:	0c05                	addi	s8,s8,1
 6ca:	0306                	slli	t1,t1,0x1
 6cc:	0900                	addi	s0,sp,144
 6ce:	0000                	unimp
 6d0:	0501                	addi	a0,a0,0
 6d2:	0609                	addi	a2,a2,2
 6d4:	0900f503          	0x900f503
 6d8:	0004                	0x4
 6da:	0501                	addi	a0,a0,0
 6dc:	062a                	slli	a2,a2,0xa
 6de:	00090003          	lb	zero,0(s2)
 6e2:	0100                	addi	s0,sp,128
 6e4:	0505                	addi	a0,a0,1
 6e6:	08097e03          	0x8097e03
 6ea:	0100                	addi	s0,sp,128
 6ec:	1605                	addi	a2,a2,-31
 6ee:	04090203          	lb	tp,64(s2)
 6f2:	0100                	addi	s0,sp,128
 6f4:	1c05                	addi	s8,s8,-31
 6f6:	0306                	slli	t1,t1,0x1
 6f8:	097e                	slli	s2,s2,0x1f
 6fa:	0004                	0x4
 6fc:	0501                	addi	a0,a0,0
 6fe:	0315                	addi	t1,t1,5
 700:	0900                	addi	s0,sp,144
 702:	0000                	unimp
 704:	0501                	addi	a0,a0,0
 706:	0605                	addi	a2,a2,1
 708:	00090003          	lb	zero,0(s2)
 70c:	0100                	addi	s0,sp,128
 70e:	0c05                	addi	s8,s8,1
 710:	097f8703          	lb	a4,151(t6)
 714:	0004                	0x4
 716:	0501                	addi	a0,a0,0
 718:	061f 0003 0409      	0x4090003061f
 71e:	0100                	addi	s0,sp,128
 720:	0b05                	addi	s6,s6,1
 722:	00090003          	lb	zero,0(s2)
 726:	0100                	addi	s0,sp,128
 728:	0c05                	addi	s8,s8,1
 72a:	0306                	slli	t1,t1,0x1
 72c:	0900                	addi	s0,sp,144
 72e:	0000                	unimp
 730:	0501                	addi	a0,a0,0
 732:	0900031b          	0x900031b
 736:	0004                	0x4
 738:	0501                	addi	a0,a0,0
 73a:	0900030b          	0x900030b
 73e:	0004                	0x4
 740:	0501                	addi	a0,a0,0
 742:	0605                	addi	a2,a2,1
 744:	04090103          	lb	sp,64(s2)
 748:	0100                	addi	s0,sp,128
 74a:	1205                	addi	tp,tp,-31
 74c:	0306                	slli	t1,t1,0x1
 74e:	0900                	addi	s0,sp,144
 750:	0000                	unimp
 752:	0501                	addi	a0,a0,0
 754:	0605                	addi	a2,a2,1
 756:	09018103          	lb	sp,144(gp)
 75a:	0004                	0x4
 75c:	0501                	addi	a0,a0,0
 75e:	060c                	addi	a1,sp,768
 760:	097efe03          	0x97efe03
 764:	0000                	unimp
 766:	0501                	addi	a0,a0,0
 768:	061f 0003 0409      	0x4090003061f
 76e:	0100                	addi	s0,sp,128
 770:	0b05                	addi	s6,s6,1
 772:	00090003          	lb	zero,0(s2)
 776:	0100                	addi	s0,sp,128
 778:	0c05                	addi	s8,s8,1
 77a:	0306                	slli	t1,t1,0x1
 77c:	0900                	addi	s0,sp,144
 77e:	0000                	unimp
 780:	0501                	addi	a0,a0,0
 782:	0900031b          	0x900031b
 786:	0004                	0x4
 788:	0501                	addi	a0,a0,0
 78a:	0900030b          	0x900030b
 78e:	0004                	0x4
 790:	0501                	addi	a0,a0,0
 792:	0314                	addi	a3,sp,384
 794:	00ee                	slli	ra,ra,0x1b
 796:	0409                	addi	s0,s0,2
 798:	0100                	addi	s0,sp,128
 79a:	0505                	addi	a0,a0,1
 79c:	0306                	slli	t1,t1,0x1
 79e:	04097f93          	andi	t6,s2,64
 7a2:	0100                	addi	s0,sp,128
 7a4:	1205                	addi	tp,tp,-31
 7a6:	0306                	slli	t1,t1,0x1
 7a8:	0900                	addi	s0,sp,144
 7aa:	0004                	0x4
 7ac:	0501                	addi	a0,a0,0
 7ae:	0605                	addi	a2,a2,1
 7b0:	09018203          	lb	tp,144(gp)
 7b4:	0004                	0x4
 7b6:	0501                	addi	a0,a0,0
 7b8:	060c                	addi	a1,sp,768
 7ba:	097efd03          	0x97efd03
 7be:	0000                	unimp
 7c0:	0501                	addi	a0,a0,0
 7c2:	031f 0183 0409      	0x4090183031f
 7c8:	0100                	addi	s0,sp,128
 7ca:	0306                	slli	t1,t1,0x1
 7cc:	7efd                	lui	t4,0xfffff
 7ce:	0409                	addi	s0,s0,2
 7d0:	0100                	addi	s0,sp,128
 7d2:	0b05                	addi	s6,s6,1
 7d4:	00090003          	lb	zero,0(s2)
 7d8:	0100                	addi	s0,sp,128
 7da:	0c05                	addi	s8,s8,1
 7dc:	0306                	slli	t1,t1,0x1
 7de:	0900                	addi	s0,sp,144
 7e0:	0000                	unimp
 7e2:	0501                	addi	a0,a0,0
 7e4:	0900031b          	0x900031b
 7e8:	0004                	0x4
 7ea:	0501                	addi	a0,a0,0
 7ec:	0900030b          	0x900030b
 7f0:	0004                	0x4
 7f2:	0501                	addi	a0,a0,0
 7f4:	0605                	addi	a2,a2,1
 7f6:	04090103          	lb	sp,64(s2)
 7fa:	0100                	addi	s0,sp,128
 7fc:	1205                	addi	tp,tp,-31
 7fe:	0306                	slli	t1,t1,0x1
 800:	0900                	addi	s0,sp,144
 802:	0004                	0x4
 804:	0501                	addi	a0,a0,0
 806:	0605                	addi	a2,a2,1
 808:	09018303          	lb	t1,144(gp)
 80c:	0004                	0x4
 80e:	0501                	addi	a0,a0,0
 810:	061f 0003 0009      	0x90003061f
 816:	0100                	addi	s0,sp,128
 818:	0c05                	addi	s8,s8,1
 81a:	097efc03          	0x97efc03
 81e:	0004                	0x4
 820:	0501                	addi	a0,a0,0
 822:	061f 0003 0409      	0x4090003061f
 828:	0100                	addi	s0,sp,128
 82a:	0b05                	addi	s6,s6,1
 82c:	00090003          	lb	zero,0(s2)
 830:	0100                	addi	s0,sp,128
 832:	0c05                	addi	s8,s8,1
 834:	0306                	slli	t1,t1,0x1
 836:	0900                	addi	s0,sp,144
 838:	0000                	unimp
 83a:	0501                	addi	a0,a0,0
 83c:	0900031b          	0x900031b
 840:	0004                	0x4
 842:	0501                	addi	a0,a0,0
 844:	0900030b          	0x900030b
 848:	0004                	0x4
 84a:	0501                	addi	a0,a0,0
 84c:	0605                	addi	a2,a2,1
 84e:	04090103          	lb	sp,64(s2)
 852:	0100                	addi	s0,sp,128
 854:	1205                	addi	tp,tp,-31
 856:	0306                	slli	t1,t1,0x1
 858:	0900                	addi	s0,sp,144
 85a:	0004                	0x4
 85c:	0501                	addi	a0,a0,0
 85e:	0605                	addi	a2,a2,1
 860:	09018403          	lb	s0,144(gp)
 864:	0004                	0x4
 866:	0501                	addi	a0,a0,0
 868:	061f 0003 0009      	0x90003061f
 86e:	0100                	addi	s0,sp,128
 870:	0c05                	addi	s8,s8,1
 872:	097efb03          	0x97efb03
 876:	0004                	0x4
 878:	0501                	addi	a0,a0,0
 87a:	061f 0003 0409      	0x4090003061f
 880:	0100                	addi	s0,sp,128
 882:	0b05                	addi	s6,s6,1
 884:	00090003          	lb	zero,0(s2)
 888:	0100                	addi	s0,sp,128
 88a:	0c05                	addi	s8,s8,1
 88c:	0306                	slli	t1,t1,0x1
 88e:	0900                	addi	s0,sp,144
 890:	0000                	unimp
 892:	0501                	addi	a0,a0,0
 894:	0900031b          	0x900031b
 898:	0004                	0x4
 89a:	0501                	addi	a0,a0,0
 89c:	0900030b          	0x900030b
 8a0:	0004                	0x4
 8a2:	0501                	addi	a0,a0,0
 8a4:	0605                	addi	a2,a2,1
 8a6:	04090103          	lb	sp,64(s2)
 8aa:	0100                	addi	s0,sp,128
 8ac:	1205                	addi	tp,tp,-31
 8ae:	0306                	slli	t1,t1,0x1
 8b0:	0900                	addi	s0,sp,144
 8b2:	0000                	unimp
 8b4:	0501                	addi	a0,a0,0
 8b6:	0605                	addi	a2,a2,1
 8b8:	09018703          	lb	a4,144(gp)
 8bc:	0004                	0x4
 8be:	0501                	addi	a0,a0,0
 8c0:	0615                	addi	a2,a2,5
 8c2:	00090103          	lb	sp,0(s2)
 8c6:	0100                	addi	s0,sp,128
 8c8:	0805                	addi	a6,a6,1
 8ca:	04097f03          	0x4097f03
 8ce:	0100                	addi	s0,sp,128
 8d0:	0905                	addi	s2,s2,1
 8d2:	0200                	addi	s0,sp,256
 8d4:	0304                	addi	s1,sp,384
 8d6:	0306                	slli	t1,t1,0x1
 8d8:	0902                	c.slli64	s2
 8da:	0004                	0x4
 8dc:	0501                	addi	a0,a0,0
 8de:	0012                	c.slli	zero,0x4
 8e0:	0402                	c.slli64	s0
 8e2:	09000303          	lb	t1,144(zero) # 90 <__bootrom_size-0x22c>
 8e6:	0000                	unimp
 8e8:	0501                	addi	a0,a0,0
 8ea:	0402000f          	0x402000f
 8ee:	09000303          	lb	t1,144(zero) # 90 <__bootrom_size-0x22c>
 8f2:	0000                	unimp
 8f4:	0501                	addi	a0,a0,0
 8f6:	0009                	c.nop	2
 8f8:	0402                	c.slli64	s0
 8fa:	09000303          	lb	t1,144(zero) # 90 <__bootrom_size-0x22c>
 8fe:	0000                	unimp
 900:	0501                	addi	a0,a0,0
 902:	0012                	c.slli	zero,0x4
 904:	0402                	c.slli64	s0
 906:	09000303          	lb	t1,144(zero) # 90 <__bootrom_size-0x22c>
 90a:	0000                	unimp
 90c:	0501                	addi	a0,a0,0
 90e:	0402000f          	0x402000f
 912:	09000303          	lb	t1,144(zero) # 90 <__bootrom_size-0x22c>
 916:	0000                	unimp
 918:	0501                	addi	a0,a0,0
 91a:	0305                	addi	t1,t1,1
 91c:	0904                	addi	s1,sp,144
 91e:	0004                	0x4
 920:	0301                	addi	t1,t1,0
 922:	00000903          	lb	s2,0(zero) # 0 <__bootrom_size-0x2bc>
 926:	0001                	nop
 928:	0402                	c.slli64	s0
 92a:	0304                	addi	s1,sp,384
 92c:	00080903          	lb	s2,0(a6)
 930:	0501                	addi	a0,a0,0
 932:	000e                	c.slli	zero,0x3
 934:	0402                	c.slli64	s0
 936:	0304                	addi	s1,sp,384
 938:	0900                	addi	s0,sp,144
 93a:	0000                	unimp
 93c:	0501                	addi	a0,a0,0
 93e:	0402000b          	0x402000b
 942:	0304                	addi	s1,sp,384
 944:	0900                	addi	s0,sp,144
 946:	0000                	unimp
 948:	0501                	addi	a0,a0,0
 94a:	0005                	c.nop	1
 94c:	0402                	c.slli64	s0
 94e:	0304                	addi	s1,sp,384
 950:	0900                	addi	s0,sp,144
 952:	0000                	unimp
 954:	0501                	addi	a0,a0,0
 956:	000e                	c.slli	zero,0x3
 958:	0402                	c.slli64	s0
 95a:	0304                	addi	s1,sp,384
 95c:	0900                	addi	s0,sp,144
 95e:	0000                	unimp
 960:	0501                	addi	a0,a0,0
 962:	0402000b          	0x402000b
 966:	0304                	addi	s1,sp,384
 968:	0900                	addi	s0,sp,144
 96a:	0000                	unimp
 96c:	0901                	addi	s2,s2,0
 96e:	0004                	0x4
 970:	0100                	addi	s0,sp,128
 972:	01              	Address 0x0000000000000972 is out of bounds.


Disassembly of section .debug_info:

00000000 <.debug_info>:
   0:	0022                	c.slli	zero,0x8
   2:	0000                	unimp
   4:	0002                	c.slli64	zero
   6:	0000                	unimp
   8:	0000                	unimp
   a:	0104                	addi	s1,sp,128
   c:	0000                	unimp
   e:	0000                	unimp
  10:	0000                	unimp
  12:	0004                	0x4
  14:	0034                	addi	a3,sp,8
  16:	0004                	0x4
  18:	0000                	unimp
  1a:	0000                	unimp
  1c:	0008                	0x8
  1e:	0000                	unimp
  20:	0049                	c.nop	18
  22:	0000                	unimp
  24:	8001                	c.srli64	s0
  26:	00000417          	auipc	s0,0x0
  2a:	0004                	0x4
  2c:	0014                	0x14
  2e:	0000                	unimp
  30:	0104                	addi	s1,sp,128
  32:	009d                	addi	ra,ra,7
  34:	0000                	unimp
  36:	2f0c                	fld	fa1,24(a4)
  38:	0001                	nop
  3a:	0800                	addi	s0,sp,16
  3c:	0000                	unimp
  3e:	3400                	fld	fs0,40(s0)
  40:	0400                	addi	s0,sp,512
  42:	8800                	0x8800
  44:	0002                	c.slli64	zero
  46:	6e00                	flw	fs0,24(a2)
  48:	0000                	unimp
  4a:	0200                	addi	s0,sp,256
  4c:	0601                	addi	a2,a2,0
  4e:	000000eb          	0xeb
  52:	0202                	c.slli64	tp
  54:	9905                	andi	a0,a0,-31
  56:	0001                	nop
  58:	0200                	addi	s0,sp,256
  5a:	0504                	addi	s1,sp,640
  5c:	00000177          	0x177
  60:	0802                	c.slli64	a6
  62:	7205                	lui	tp,0xfffe1
  64:	0001                	nop
  66:	0300                	addi	s0,sp,384
  68:	016a                	slli	sp,sp,0x1a
  6a:	0000                	unimp
  6c:	2e02                	fld	ft8,0(sp)
  6e:	4d18                	lw	a4,24(a0)
  70:	0000                	unimp
  72:	0200                	addi	s0,sp,256
  74:	0801                	addi	a6,a6,0
  76:	00e9                	addi	ra,ra,26
  78:	0000                	unimp
  7a:	0202                	c.slli64	tp
  7c:	00010307          	0x10307
  80:	0300                	addi	s0,sp,384
  82:	000001ab          	0x1ab
  86:	3402                	fld	fs0,32(sp)
  88:	6719                	lui	a4,0x6
  8a:	0000                	unimp
  8c:	0200                	addi	s0,sp,256
  8e:	0704                	addi	s1,sp,896
  90:	0158                	addi	a4,sp,132
  92:	0000                	unimp
  94:	0802                	c.slli64	a6
  96:	00015307          	0x15307
  9a:	0400                	addi	s0,sp,512
  9c:	0504                	addi	s1,sp,640
  9e:	6e69                	lui	t3,0x1a
  a0:	0074                	addi	a3,sp,12
  a2:	0402                	c.slli64	s0
  a4:	00015d07          	0x15d07
  a8:	0500                	addi	s0,sp,640
  aa:	0000005b          	0x5b
  ae:	00000093          	li	ra,0
  b2:	7c06                	flw	fs8,96(sp)
  b4:	0000                	unimp
  b6:	ff00                	fsw	fs0,56(a4)
  b8:	0700                	addi	s0,sp,896
  ba:	0180                	addi	s0,sp,192
  bc:	0000                	unimp
  be:	4401                	li	s0,0
  c0:	8311                	srli	a4,a4,0x4
  c2:	0000                	unimp
  c4:	0500                	addi	s0,sp,640
  c6:	04200003          	lb	zero,66(zero) # 42 <__bootrom_size-0x27a>
  ca:	0800                	addi	s0,sp,16
  cc:	008d                	addi	ra,ra,3
  ce:	0000                	unimp
  d0:	5901                	li	s2,-32
  d2:	3406                	fld	fs0,96(sp)
  d4:	0400                	addi	s0,sp,512
  d6:	8800                	0x8800
  d8:	0002                	c.slli64	zero
  da:	0100                	addi	s0,sp,128
  dc:	859c                	0x859c
  de:	09000003          	lb	zero,144(zero) # 90 <__bootrom_size-0x22c>
  e2:	01bc                	addi	a5,sp,200
  e4:	0000                	unimp
  e6:	5a01                	li	s4,-32
  e8:	850e                	mv	a0,gp
  ea:	00000003          	lb	zero,0(zero) # 0 <__bootrom_size-0x2bc>
  ee:	6d0a                	flw	fs10,128(sp)
  f0:	0000                	unimp
  f2:	0100                	addi	s0,sp,128
  f4:	005b0e5b          	0x5b0e5b
  f8:	0000                	unimp
  fa:	0000                	unimp
  fc:	0000                	unimp
  fe:	7e0a                	flw	ft8,160(sp)
 100:	0000                	unimp
 102:	0100                	addi	s0,sp,128
 104:	0e5c                	addi	a5,sp,788
 106:	0000005b          	0x5b
 10a:	002a                	c.slli	zero,0xa
 10c:	0000                	unimp
 10e:	8c0a                	mv	s8,sp
 110:	0001                	nop
 112:	0100                	addi	s0,sp,128
 114:	0e5d                	addi	t3,t3,23
 116:	0000005b          	0x5b
 11a:	006c                	addi	a1,sp,12
 11c:	0000                	unimp
 11e:	160a                	slli	a2,a2,0x22
 120:	0001                	nop
 122:	0100                	addi	s0,sp,128
 124:	0e5e                	slli	t3,t3,0x17
 126:	0000005b          	0x5b
 12a:	007f                	0x7f
 12c:	0000                	unimp
 12e:	640a                	flw	fs0,128(sp)
 130:	0000                	unimp
 132:	0100                	addi	s0,sp,128
 134:	0d5f 0041 0000      	0x410d5f
 13a:	00b5                	addi	ra,ra,13
 13c:	0000                	unimp
 13e:	4709                	li	a4,2
 140:	0001                	nop
 142:	0100                	addi	s0,sp,128
 144:	0d60                	addi	s0,sp,668
 146:	0041                	c.nop	16
 148:	0000                	unimp
 14a:	0a00                	addi	s0,sp,272
 14c:	000001a3          	sb	zero,3(zero) # 3 <__bootrom_size-0x2b9>
 150:	a801                	j	160 <__bootrom_size-0x15c>
 152:	410d                	li	sp,3
 154:	0000                	unimp
 156:	ef00                	fsw	fs0,24(a4)
 158:	0000                	unimp
 15a:	0b00                	addi	s0,sp,400
 15c:	008c                	addi	a1,sp,64
 15e:	0004                	0x4
 160:	0020                	addi	s0,sp,8
 162:	0000                	unimp
 164:	00000163          	beqz	zero,166 <__bootrom_size-0x156>
 168:	630c                	flw	fa1,0(a4)
 16a:	646d                	lui	s0,0x1b
 16c:	0100                	addi	s0,sp,128
 16e:	116a                	slli	sp,sp,0x3a
 170:	0041                	c.nop	16
 172:	0000                	unimp
 174:	010d                	addi	sp,sp,3
 176:	0000                	unimp
 178:	e90d                	bnez	a0,1aa <__bootrom_size-0x112>
 17a:	90000003          	lb	zero,-1792(zero) # fffff900 <__stack_top+0xfffbc900>
 17e:	0400                	addi	s0,sp,512
 180:	1400                	addi	s0,sp,544
 182:	0000                	unimp
 184:	0100                	addi	s0,sp,128
 186:	176a                	slli	a4,a4,0x3a
 188:	0e00                	addi	s0,sp,784
 18a:	0068                	addi	a0,sp,12
 18c:	0000                	unimp
 18e:	01a1                	addi	gp,gp,8
 190:	0000                	unimp
 192:	690c                	flw	fa1,16(a0)
 194:	0100                	addi	s0,sp,128
 196:	0e78                	addi	a4,sp,796
 198:	0075                	c.nop	29
 19a:	0000                	unimp
 19c:	0120                	addi	s0,sp,136
 19e:	0000                	unimp
 1a0:	0000800f          	0x800f
 1a4:	0a00                	addi	s0,sp,272
 1a6:	0079                	c.nop	30
 1a8:	0000                	unimp
 1aa:	7901                	lui	s2,0xfffe0
 1ac:	4111                	li	sp,4
 1ae:	0000                	unimp
 1b0:	3400                	fld	fs0,40(s0)
 1b2:	0001                	nop
 1b4:	1000                	addi	s0,sp,32
 1b6:	03e9                	addi	t2,t2,26
 1b8:	0000                	unimp
 1ba:	00d0                	addi	a2,sp,68
 1bc:	0004                	0x4
 1be:	00a0                	addi	s0,sp,72
 1c0:	0000                	unimp
 1c2:	7901                	lui	s2,0xfffe0
 1c4:	0018                	0x18
 1c6:	0e00                	addi	s0,sp,784
 1c8:	00b8                	addi	a4,sp,72
 1ca:	0000                	unimp
 1cc:	00000217          	auipc	tp,0x0
 1d0:	f709                	bnez	a4,da <__bootrom_size-0x1e2>
 1d2:	0000                	unimp
 1d4:	0100                	addi	s0,sp,128
 1d6:	1289                	addi	t0,t0,-30
 1d8:	0000005b          	0x5b
 1dc:	0e00                	addi	s0,sp,784
 1de:	00d0                	addi	a2,sp,68
 1e0:	0000                	unimp
 1e2:	0200                	addi	s0,sp,256
 1e4:	0000                	unimp
 1e6:	790a                	flw	fs2,160(sp)
 1e8:	0000                	unimp
 1ea:	0100                	addi	s0,sp,128
 1ec:	158d                	addi	a1,a1,-29
 1ee:	0041                	c.nop	16
 1f0:	0000                	unimp
 1f2:	00000147          	fmsub.s	ft2,ft0,ft0,ft0,rne
 1f6:	e910                	fsw	fa2,16(a0)
 1f8:	40000003          	lb	zero,1024(zero) # 400 <__bootrom_size+0x144>
 1fc:	0401                	addi	s0,s0,0
 1fe:	e800                	fsw	fs0,16(s0)
 200:	0000                	unimp
 202:	0100                	addi	s0,sp,128
 204:	1c8d                	addi	s9,s9,-29
 206:	8b11                	andi	a4,a4,4
 208:	68000003          	lb	zero,1664(zero) # 680 <__bootrom_size+0x3c4>
 20c:	0401                	addi	s0,s0,0
 20e:	0800                	addi	s0,sp,16
 210:	0001                	nop
 212:	0100                	addi	s0,sp,128
 214:	1e91                	addi	t4,t4,-28
 216:	a812                	fsd	ft4,16(sp)
 218:	66000003          	lb	zero,1632(zero) # 660 <__bootrom_size+0x3a4>
 21c:	0001                	nop
 21e:	1300                	addi	s0,sp,416
 220:	039c                	addi	a5,sp,448
 222:	0000                	unimp
 224:	0000                	unimp
 226:	f611                	bnez	a2,132 <__bootrom_size-0x18a>
 228:	90000003          	lb	zero,-1792(zero) # fffff900 <__stack_top+0xfffbc900>
 22c:	0401                	addi	s0,s0,0
 22e:	2800                	fld	fs0,16(s0)
 230:	0001                	nop
 232:	0100                	addi	s0,sp,128
 234:	0998                	addi	a4,sp,208
 236:	00040313          	mv	t1,s0
 23a:	0000                	unimp
 23c:	0b00                	addi	s0,sp,400
 23e:	01f8                	addi	a4,sp,204
 240:	0004                	0x4
 242:	002c                	addi	a1,sp,8
 244:	0000                	unimp
 246:	0255                	addi	tp,tp,21
 248:	0000                	unimp
 24a:	6914                	flw	fa3,16(a0)
 24c:	0100                	addi	s0,sp,128
 24e:	0eb0                	addi	a2,sp,856
 250:	0075                	c.nop	29
 252:	0000                	unimp
 254:	0001400f          	0x1400f
 258:	0a00                	addi	s0,sp,272
 25a:	0079                	c.nop	30
 25c:	0000                	unimp
 25e:	b101                	j	fffffe5e <__stack_top+0xfffbce5e>
 260:	4111                	li	sp,4
 262:	0000                	unimp
 264:	8500                	0x8500
 266:	0001                	nop
 268:	1000                	addi	s0,sp,32
 26a:	03e9                	addi	t2,t2,26
 26c:	0000                	unimp
 26e:	01f8                	addi	a4,sp,204
 270:	0004                	0x4
 272:	0160                	addi	s0,sp,140
 274:	0000                	unimp
 276:	b101                	j	fffffe76 <__stack_top+0xfffbce76>
 278:	0018                	0x18
 27a:	1500                	addi	s0,sp,672
 27c:	03b5                	addi	t2,t2,13
 27e:	0000                	unimp
 280:	0034                	addi	a3,sp,8
 282:	0004                	0x4
 284:	0000                	unimp
 286:	0000                	unimp
 288:	6301                	0x6301
 28a:	a305                	j	7aa <__bootrom_size+0x4ee>
 28c:	0002                	c.slli64	zero
 28e:	1600                	addi	s0,sp,800
 290:	03c2                	slli	t2,t2,0x10
 292:	0000                	unimp
 294:	0000                	unimp
 296:	0000                	unimp
 298:	0003c317          	auipc	t1,0x3c
 29c:	9800                	0x9800
 29e:	0001                	nop
 2a0:	1600                	addi	s0,sp,800
 2a2:	03cd                	addi	t2,t2,19
 2a4:	0000                	unimp
 2a6:	0018                	0x18
 2a8:	0000                	unimp
 2aa:	0003ce17          	auipc	t3,0x3c
 2ae:	b700                	fsd	fs0,40(a4)
 2b0:	0001                	nop
 2b2:	1600                	addi	s0,sp,800
 2b4:	03da                	slli	t2,t2,0x16
 2b6:	0000                	unimp
 2b8:	0040                	addi	s0,sp,4
 2ba:	0000                	unimp
 2bc:	0003db17          	auipc	s6,0x3d
 2c0:	ca00                	sw	s0,16(a2)
 2c2:	0001                	nop
 2c4:	0000                	unimp
 2c6:	0000                	unimp
 2c8:	1800                	addi	s0,sp,48
 2ca:	03f6                	slli	t2,t2,0x1d
 2cc:	0000                	unimp
 2ce:	00ac                	addi	a1,sp,72
 2d0:	0004                	0x4
 2d2:	0018                	0x18
 2d4:	0000                	unimp
 2d6:	7101                	addi	sp,sp,-512
 2d8:	bd05                	j	108 <__bootrom_size-0x1b4>
 2da:	0002                	c.slli64	zero
 2dc:	1300                	addi	s0,sp,416
 2de:	00000403          	lb	s0,0(zero) # 0 <__bootrom_size-0x2bc>
 2e2:	1800                	addi	s0,sp,48
 2e4:	03f6                	slli	t2,t2,0x1d
 2e6:	0000                	unimp
 2e8:	00fc                	addi	a5,sp,76
 2ea:	0004                	0x4
 2ec:	0018                	0x18
 2ee:	0000                	unimp
 2f0:	7e01                	lui	t3,0xfffe0
 2f2:	d705                	beqz	a4,21a <__bootrom_size-0xa2>
 2f4:	0002                	c.slli64	zero
 2f6:	1300                	addi	s0,sp,416
 2f8:	00000403          	lb	s0,0(zero) # 0 <__bootrom_size-0x2bc>
 2fc:	0d00                	addi	s0,sp,656
 2fe:	03e9                	addi	t2,t2,26
 300:	0000                	unimp
 302:	01c0                	addi	s0,sp,196
 304:	0004                	0x4
 306:	0014                	0x14
 308:	0000                	unimp
 30a:	a801                	j	31a <__bootrom_size+0x5e>
 30c:	03f61817          	auipc	a6,0x3f61
 310:	0000                	unimp
 312:	0224                	addi	s1,sp,264
 314:	0004                	0x4
 316:	0014                	0x14
 318:	0000                	unimp
 31a:	b601                	j	fffffe1a <__stack_top+0xfffbce1a>
 31c:	0105                	addi	sp,sp,1
 31e:	13000003          	lb	zero,304(zero) # 130 <__bootrom_size-0x18c>
 322:	00000403          	lb	s0,0(zero) # 0 <__bootrom_size-0x2bc>
 326:	1500                	addi	s0,sp,672
 328:	03f6                	slli	t2,t2,0x1d
 32a:	0000                	unimp
 32c:	0238                	addi	a4,sp,264
 32e:	0004                	0x4
 330:	0178                	addi	a4,sp,140
 332:	0000                	unimp
 334:	b901                	j	ffffff44 <__stack_top+0xfffbcf44>
 336:	1b05                	addi	s6,s6,-31
 338:	13000003          	lb	zero,304(zero) # 130 <__bootrom_size-0x18c>
 33c:	00000403          	lb	s0,0(zero) # 0 <__bootrom_size-0x2bc>
 340:	1500                	addi	s0,sp,672
 342:	03f6                	slli	t2,t2,0x1d
 344:	0000                	unimp
 346:	0254                	addi	a3,sp,260
 348:	0004                	0x4
 34a:	0190                	addi	a2,sp,192
 34c:	0000                	unimp
 34e:	ba01                	j	fffffc5e <__stack_top+0xfffbcc5e>
 350:	3905                	jal	ffffff80 <__stack_top+0xfffbcf80>
 352:	12000003          	lb	zero,288(zero) # 120 <__bootrom_size-0x19c>
 356:	00000403          	lb	s0,0(zero) # 0 <__bootrom_size-0x2bc>
 35a:	01fc                	addi	a5,sp,204
 35c:	0000                	unimp
 35e:	1800                	addi	s0,sp,48
 360:	03f6                	slli	t2,t2,0x1d
 362:	0000                	unimp
 364:	0274                	addi	a3,sp,268
 366:	0004                	0x4
 368:	0018                	0x18
 36a:	0000                	unimp
 36c:	bb01                	j	7c <__bootrom_size-0x240>
 36e:	5705                	li	a4,-31
 370:	12000003          	lb	zero,288(zero) # 120 <__bootrom_size-0x19c>
 374:	00000403          	lb	s0,0(zero) # 0 <__bootrom_size-0x2bc>
 378:	021e                	slli	tp,tp,0x7
 37a:	0000                	unimp
 37c:	1800                	addi	s0,sp,48
 37e:	03f6                	slli	t2,t2,0x1d
 380:	0000                	unimp
 382:	0290                	addi	a2,sp,320
 384:	0004                	0x4
 386:	0014                	0x14
 388:	0000                	unimp
 38a:	bc01                	j	fffffd9a <__stack_top+0xfffbcd9a>
 38c:	7505                	lui	a0,0xfffe1
 38e:	12000003          	lb	zero,288(zero) # 120 <__bootrom_size-0x19c>
 392:	00000403          	lb	s0,0(zero) # 0 <__bootrom_size-0x2bc>
 396:	0240                	addi	s0,sp,260
 398:	0000                	unimp
 39a:	1900                	addi	s0,sp,176
 39c:	02b8                	addi	a4,sp,328
 39e:	0004                	0x4
 3a0:	040e                	slli	s0,s0,0x3
 3a2:	0000                	unimp
 3a4:	011a                	slli	sp,sp,0x6
 3a6:	015a                	slli	sp,sp,0x16
 3a8:	0030                	addi	a2,sp,8
 3aa:	1b00                	addi	s0,sp,432
 3ac:	4104                	lw	s1,0(a0)
 3ae:	0000                	unimp
 3b0:	1c00                	addi	s0,sp,560
 3b2:	00000057          	0x57
 3b6:	5101                	li	sp,-32
 3b8:	5b11                	li	s6,-28
 3ba:	0000                	unimp
 3bc:	0100                	addi	s0,sp,128
 3be:	03b5                	addi	t2,t2,13
 3c0:	0000                	unimp
 3c2:	631d                	lui	t1,0x7
 3c4:	6372                	flw	ft6,28(sp)
 3c6:	0100                	addi	s0,sp,128
 3c8:	2751                	jal	b4c <__bootrom_size+0x890>
 3ca:	0000005b          	0x5b
 3ce:	791e                	flw	fs2,228(sp)
 3d0:	0000                	unimp
 3d2:	0100                	addi	s0,sp,128
 3d4:	3451                	jal	fffffe58 <__stack_top+0xfffbce58>
 3d6:	0041                	c.nop	16
 3d8:	0000                	unimp
 3da:	1f00                	addi	s0,sp,944
 3dc:	013c                	addi	a5,sp,136
 3de:	0000                	unimp
 3e0:	4601                	li	a2,0
 3e2:	010d                	addi	sp,sp,3
 3e4:	03e9                	addi	t2,t2,26
 3e6:	0000                	unimp
 3e8:	1420                	addi	s0,sp,552
 3ea:	0069                	c.nop	26
 3ec:	4701                	li	a4,0
 3ee:	00005b13          	srli	s6,zero,0x0
 3f2:	2000                	fld	fs0,0(s0)
 3f4:	6314                	flw	fa3,0(a4)
 3f6:	6372                	flw	ft6,28(sp)
 3f8:	0100                	addi	s0,sp,128
 3fa:	1248                	addi	a0,sp,292
 3fc:	0000005b          	0x5b
 400:	1420                	addi	s0,sp,552
 402:	006a                	c.slli	zero,0x1a
 404:	4901                	li	s2,0
 406:	7512                	flw	fa0,36(sp)
 408:	0000                	unimp
 40a:	0000                	unimp
 40c:	0000                	unimp
 40e:	2100                	fld	fs0,0(a0)
 410:	0125                	addi	sp,sp,9
 412:	0000                	unimp
 414:	3b01                	jal	124 <__bootrom_size-0x198>
 416:	4110                	lw	a2,0(a0)
 418:	0000                	unimp
 41a:	0100                	addi	s0,sp,128
 41c:	c51f 0001 0100      	0x1000001c51f
 422:	0d36                	slli	s10,s10,0xd
 424:	0e01                	addi	t3,t3,0
 426:	0004                	0x4
 428:	1d00                	addi	s0,sp,688
 42a:	36010063          	beqz	sp,78a <__bootrom_size+0x4ce>
 42e:	411f 0000 0000      	0x411f
 434:	b422                	fsd	fs0,40(sp)
 436:	0001                	nop
 438:	b400                	fsd	fs0,40(s0)
 43a:	0001                	nop
 43c:	0100                	addi	s0,sp,128
 43e:	0d30                	addi	a2,sp,664
	...

Disassembly of section .debug_abbrev:

00000000 <.debug_abbrev>:
   0:	1101                	addi	sp,sp,-32
   2:	1000                	addi	s0,sp,32
   4:	1106                	slli	sp,sp,0x21
   6:	1201                	addi	tp,tp,-32
   8:	0301                	addi	t1,t1,0
   a:	1b0e                	slli	s6,s6,0x23
   c:	250e                	fld	fa0,192(sp)
   e:	130e                	slli	t1,t1,0x23
  10:	0005                	c.nop	1
  12:	0000                	unimp
  14:	1101                	addi	sp,sp,-32
  16:	2501                	jal	616 <__bootrom_size+0x35a>
  18:	130e                	slli	t1,t1,0x23
  1a:	1b0e030b          	0x1b0e030b
  1e:	110e                	slli	sp,sp,0x23
  20:	1201                	addi	tp,tp,-32
  22:	1006                	c.slli	zero,0x21
  24:	02000017          	auipc	zero,0x2000
  28:	0024                	addi	s1,sp,8
  2a:	0b3e0b0b          	0xb3e0b0b
  2e:	00000e03          	lb	t3,0(zero) # 0 <__bootrom_size-0x2bc>
  32:	03001603          	lh	a2,48(zero) # 30 <__bootrom_size-0x28c>
  36:	3a0e                	fld	fs4,224(sp)
  38:	390b3b0b          	0x390b3b0b
  3c:	0013490b          	0x13490b
  40:	0400                	addi	s0,sp,512
  42:	0024                	addi	s1,sp,8
  44:	0b3e0b0b          	0xb3e0b0b
  48:	00000803          	lb	a6,0(zero) # 0 <__bootrom_size-0x2bc>
  4c:	0105                	addi	sp,sp,1
  4e:	4901                	li	s2,0
  50:	00130113          	addi	sp,t1,1 # 7001 <__bootrom_size+0x6d45>
  54:	0600                	addi	s0,sp,768
  56:	0021                	c.nop	8
  58:	1349                	addi	t1,t1,-14
  5a:	00000b2f          	0xb2f
  5e:	03003407          	fld	fs0,48(zero) # 30 <__bootrom_size-0x28c>
  62:	3a0e                	fld	fs4,224(sp)
  64:	390b3b0b          	0x390b3b0b
  68:	0213490b          	0x213490b
  6c:	0018                	0x18
  6e:	0800                	addi	s0,sp,16
  70:	012e                	slli	sp,sp,0xb
  72:	0e03193f 0b3b0b3a 	0xb3b0b3a0e03193f
  7a:	0b39                	addi	s6,s6,14
  7c:	01111927          	0x1111927
  80:	0612                	slli	a2,a2,0x4
  82:	1840                	addi	s0,sp,52
  84:	01194297          	auipc	t0,0x1194
  88:	09000013          	li	zero,144
  8c:	0034                	addi	a3,sp,8
  8e:	0b3a0e03          	lb	t3,179(s4)
  92:	0b390b3b          	0xb390b3b
  96:	1349                	addi	t1,t1,-14
  98:	0b1c                	addi	a5,sp,400
  9a:	0000                	unimp
  9c:	340a                	fld	fs0,160(sp)
  9e:	0300                	addi	s0,sp,384
  a0:	3a0e                	fld	fs4,224(sp)
  a2:	390b3b0b          	0x390b3b0b
  a6:	0213490b          	0x213490b
  aa:	0b000017          	auipc	zero,0xb000
  ae:	0111010b          	0x111010b
  b2:	0612                	slli	a2,a2,0x4
  b4:	1301                	addi	t1,t1,-32
  b6:	0000                	unimp
  b8:	340c                	fld	fa1,40(s0)
  ba:	0300                	addi	s0,sp,384
  bc:	3a08                	fld	fa0,48(a2)
  be:	390b3b0b          	0x390b3b0b
  c2:	0213490b          	0x213490b
  c6:	0d000017          	auipc	zero,0xd000
  ca:	001d                	c.nop	7
  cc:	1331                	addi	t1,t1,-20
  ce:	0111                	addi	sp,sp,4
  d0:	0612                	slli	a2,a2,0x4
  d2:	0b58                	addi	a4,sp,404
  d4:	0b59                	addi	s6,s6,22
  d6:	00000b57          	0xb57
  da:	0b0e                	slli	s6,s6,0x3
  dc:	5501                	li	a0,-32
  de:	00130117          	auipc	sp,0x130
  e2:	0f00                	addi	s0,sp,912
  e4:	1755010b          	0x1755010b
  e8:	0000                	unimp
  ea:	1d10                	addi	a2,sp,688
  ec:	3100                	fld	fs0,32(a0)
  ee:	55015213          	0x55015213
  f2:	590b5817          	auipc	a6,0x590b5
  f6:	000b570b          	0xb570b
  fa:	1100                	addi	s0,sp,160
  fc:	011d                	addi	sp,sp,7
  fe:	1331                	addi	t1,t1,-20
 100:	0152                	slli	sp,sp,0x14
 102:	1755                	addi	a4,a4,-11
 104:	0b58                	addi	a4,sp,404
 106:	0b59                	addi	s6,s6,22
 108:	00000b57          	0xb57
 10c:	0512                	slli	a0,a0,0x4
 10e:	3100                	fld	fs0,32(a0)
 110:	00170213          	addi	tp,a4,1 # 6001 <__bootrom_size+0x5d45>
 114:	1300                	addi	s0,sp,416
 116:	0005                	c.nop	1
 118:	1331                	addi	t1,t1,-20
 11a:	0000                	unimp
 11c:	3414                	fld	fa3,40(s0)
 11e:	0300                	addi	s0,sp,384
 120:	3a08                	fld	fa0,48(a2)
 122:	390b3b0b          	0x390b3b0b
 126:	0013490b          	0x13490b
 12a:	1500                	addi	s0,sp,672
 12c:	011d                	addi	sp,sp,7
 12e:	1331                	addi	t1,t1,-20
 130:	0152                	slli	sp,sp,0x14
 132:	1755                	addi	a4,a4,-11
 134:	0b58                	addi	a4,sp,404
 136:	0b59                	addi	s6,s6,22
 138:	13010b57          	0x13010b57
 13c:	0000                	unimp
 13e:	0b16                	slli	s6,s6,0x5
 140:	3101                	jal	fffffd40 <__stack_top+0xfffbcd40>
 142:	00175513          	srli	a0,a4,0x1
 146:	1700                	addi	s0,sp,928
 148:	0034                	addi	a3,sp,8
 14a:	1331                	addi	t1,t1,-20
 14c:	1702                	slli	a4,a4,0x20
 14e:	0000                	unimp
 150:	1d18                	addi	a4,sp,688
 152:	3101                	jal	fffffd52 <__stack_top+0xfffbcd52>
 154:	12011113          	0x12011113
 158:	5806                	lw	a6,96(sp)
 15a:	570b590b          	0x570b590b
 15e:	0013010b          	0x13010b
 162:	1900                	addi	s0,sp,176
 164:	8289                	srli	a3,a3,0x2
 166:	0101                	addi	sp,sp,0
 168:	0111                	addi	sp,sp,4
 16a:	1331                	addi	t1,t1,-20
 16c:	0000                	unimp
 16e:	8a1a                	mv	s4,t1
 170:	0182                	c.slli64	gp
 172:	0200                	addi	s0,sp,256
 174:	9118                	0x9118
 176:	1842                	slli	a6,a6,0x30
 178:	0000                	unimp
 17a:	0b000f1b          	0xb000f1b
 17e:	0013490b          	0x13490b
 182:	1c00                	addi	s0,sp,560
 184:	012e                	slli	sp,sp,0xb
 186:	0b3a0e03          	lb	t3,179(s4)
 18a:	0b390b3b          	0xb390b3b
 18e:	13491927          	0x13491927
 192:	0b20                	addi	s0,sp,408
 194:	1301                	addi	t1,t1,-32
 196:	0000                	unimp
 198:	051d                	addi	a0,a0,7
 19a:	0300                	addi	s0,sp,384
 19c:	3a08                	fld	fa0,48(a2)
 19e:	390b3b0b          	0x390b3b0b
 1a2:	0013490b          	0x13490b
 1a6:	1e00                	addi	s0,sp,816
 1a8:	0005                	c.nop	1
 1aa:	0b3a0e03          	lb	t3,179(s4)
 1ae:	0b390b3b          	0xb390b3b
 1b2:	1349                	addi	t1,t1,-14
 1b4:	0000                	unimp
 1b6:	2e1f 0301 3a0e      	0x3a0e03012e1f
 1bc:	390b3b0b          	0x390b3b0b
 1c0:	2019270b          	0x2019270b
 1c4:	0013010b          	0x13010b
 1c8:	2000                	fld	fs0,0(s0)
 1ca:	0000010b          	0x10b
 1ce:	2e21                	jal	4e6 <__bootrom_size+0x22a>
 1d0:	0300                	addi	s0,sp,384
 1d2:	3a0e                	fld	fs4,224(sp)
 1d4:	390b3b0b          	0x390b3b0b
 1d8:	4919270b          	0x4919270b
 1dc:	000b2013          	slti	zero,s6,0
 1e0:	2200                	fld	fs0,0(a2)
 1e2:	002e                	c.slli	zero,0xb
 1e4:	193c193f 0e030e6e 	0xe030e6e193c193f
 1ec:	0b3a                	slli	s6,s6,0xe
 1ee:	0b390b3b          	0xb390b3b
 1f2:	0000                	unimp
	...

Disassembly of section .debug_aranges:

00000000 <.debug_aranges>:
   0:	001c                	0x1c
   2:	0000                	unimp
   4:	0002                	c.slli64	zero
   6:	0000                	unimp
   8:	0000                	unimp
   a:	0004                	0x4
   c:	0000                	unimp
   e:	0000                	unimp
  10:	0000                	unimp
  12:	0004                	0x4
  14:	0034                	addi	a3,sp,8
	...
  1e:	0000                	unimp
  20:	001c                	0x1c
  22:	0000                	unimp
  24:	0002                	c.slli64	zero
  26:	0026                	c.slli	zero,0x9
  28:	0000                	unimp
  2a:	0004                	0x4
  2c:	0000                	unimp
  2e:	0000                	unimp
  30:	0034                	addi	a3,sp,8
  32:	0004                	0x4
  34:	0288                	addi	a0,sp,320
	...

Disassembly of section .debug_str:

00000000 <.debug_str>:
   0:	72617473          	csrrci	s0,0x726,2
   4:	2e74                	fld	fa3,216(a2)
   6:	6d2f0053          	0x6d2f0053
   a:	746e                	flw	fs0,248(sp)
   c:	6d2f632f          	0x6d2f632f
  10:	36737973          	csrrci	s2,0x367,6
  14:	2f34                	fld	fa3,88(a4)
  16:	6f68                	flw	fa0,92(a4)
  18:	656d                	lui	a0,0x1b
  1a:	6f776d2f          	0x6f776d2f
  1e:	616c                	flw	fa1,68(a0)
  20:	6c6f2f6b          	0x6c6f2f6b
  24:	6d69                	lui	s10,0x1a
  26:	7865                	lui	a6,0xffff9
  28:	692d                	lui	s2,0xb
  2a:	30346563          	bltu	s0,gp,334 <__bootrom_size+0x78>
  2e:	7868                	flw	fa0,116(s0)
  30:	6b38                	flw	fa4,80(a4)
  32:	722d                	lui	tp,0xfffeb
  34:	7369                	lui	t1,0xffffa
  36:	692d7663          	bgeu	s10,s2,6c2 <__bootrom_size+0x406>
  3a:	746e                	flw	fs0,248(sp)
  3c:	2f72                	fld	ft10,280(sp)
  3e:	6f62                	flw	ft10,24(sp)
  40:	6f6c746f          	jal	s0,c7736 <__stack_top+0x84736>
  44:	6461                	lui	s0,0x18
  46:	7265                	lui	tp,0xffff9
  48:	4700                	lw	s0,8(a4)
  4a:	554e                	lw	a0,240(sp)
  4c:	4120                	lw	s0,64(a0)
  4e:	2e322053          	0x2e322053
  52:	312e3533          	0x312e3533
  56:	6300                	flw	fs0,0(a4)
  58:	6372                	flw	ft6,28(sp)
  5a:	755f3233          	0x755f3233
  5e:	6470                	flw	fa2,76(s0)
  60:	7461                	lui	s0,0xffff8
  62:	0065                	c.nop	25
  64:	6361                	lui	t1,0x18
  66:	68635f6b          	0x68635f6b
  6a:	7261                	lui	tp,0xffff8
  6c:	7000                	flw	fs0,32(s0)
  6e:	6361                	lui	t1,0x18
  70:	5f74656b          	0x5f74656b
  74:	657a6973          	csrrsi	s2,0x657,20
  78:	6200                	flw	fs0,0(a2)
  7a:	7479                	lui	s0,0xffffe
  7c:	0065                	c.nop	25
  7e:	7962                	flw	fs2,56(sp)
  80:	6574                	flw	fa3,76(a0)
  82:	65725f73          	csrrwi	t5,0x657,4
  86:	76696563          	bltu	s2,t1,7f0 <__bootrom_size+0x534>
  8a:	6465                	lui	s0,0x19
  8c:	6200                	flw	fs0,0(a2)
  8e:	6c746f6f          	jal	t5,46f54 <__stack_top+0x3f54>
  92:	6564616f          	jal	sp,466e8 <__stack_top+0x36e8>
  96:	5f72                	lw	t5,60(sp)
  98:	616d                	addi	sp,sp,240
  9a:	6e69                	lui	t3,0x1a
  9c:	4700                	lw	s0,8(a4)
  9e:	554e                	lw	a0,240(sp)
  a0:	4320                	lw	s0,64(a4)
  a2:	3731                	jal	ffffffae <__stack_top+0xfffbcfae>
  a4:	3120                	fld	fs0,96(a0)
  a6:	2e30                	fld	fa2,88(a2)
  a8:	2e32                	fld	ft8,264(sp)
  aa:	2030                	fld	fa2,64(s0)
  ac:	6d2d                	lui	s10,0xb
  ae:	7261                	lui	tp,0xffff8
  b0:	723d6863          	bltu	s10,gp,7e0 <__bootrom_size+0x524>
  b4:	3376                	fld	ft6,376(sp)
  b6:	6532                	flw	fa0,12(sp)
  b8:	2d20                	fld	fs0,88(a0)
  ba:	616d                	addi	sp,sp,240
  bc:	6962                	flw	fs2,24(sp)
  be:	693d                	lui	s2,0xf
  c0:	706c                	flw	fa1,100(s0)
  c2:	20653233          	0x20653233
  c6:	672d                	lui	a4,0xb
  c8:	2d20                	fld	fs0,88(a0)
  ca:	2d20324f          	0x2d20324f
  ce:	6666                	flw	fa2,88(sp)
  d0:	6572                	flw	fa0,28(sp)
  d2:	7365                	lui	t1,0xffff9
  d4:	6174                	flw	fa3,68(a0)
  d6:	646e                	flw	fs0,216(sp)
  d8:	6e69                	lui	t3,0x1a
  da:	662d2067          	0x662d2067
  de:	6f6e                	flw	ft10,216(sp)
  e0:	622d                	lui	tp,0xb
  e2:	6975                	lui	s2,0x1d
  e4:	746c                	flw	fa1,108(s0)
  e6:	6e69                	lui	t3,0x1a
  e8:	7500                	flw	fs0,40(a0)
  ea:	736e                	flw	ft6,248(sp)
  ec:	6769                	lui	a4,0x1a
  ee:	656e                	flw	fa0,216(sp)
  f0:	2064                	fld	fs1,192(s0)
  f2:	72616863          	bltu	sp,t1,822 <__bootrom_size+0x566>
  f6:	6300                	flw	fs0,0(a4)
  f8:	7568                	flw	fa0,108(a0)
  fa:	6b6e                	flw	fs6,216(sp)
  fc:	625f 7479 7365      	0x73657479625f
 102:	7300                	flw	fs0,32(a4)
 104:	6f68                	flw	fa0,92(a4)
 106:	7472                	flw	fs0,60(sp)
 108:	7520                	flw	fs0,104(a0)
 10a:	736e                	flw	ft6,248(sp)
 10c:	6769                	lui	a4,0x1a
 10e:	656e                	flw	fa0,216(sp)
 110:	2064                	fld	fs1,192(s0)
 112:	6e69                	lui	t3,0x1a
 114:	0074                	addi	a3,sp,12
 116:	636c6163          	bltu	s8,s6,738 <__bootrom_size+0x47c>
 11a:	6c75                	lui	s8,0x1d
 11c:	7461                	lui	s0,0xffff8
 11e:	6465                	lui	s0,0x19
 120:	635f 6372 7500      	0x75006372635f
 126:	7261                	lui	tp,0xffff8
 128:	5f74                	lw	a3,124(a4)
 12a:	63746567          	0x63746567
 12e:	6200                	flw	fs0,0(a2)
 130:	6c746f6f          	jal	t5,46ff6 <__stack_top+0x3ff6>
 134:	6564616f          	jal	sp,4678a <__stack_top+0x378a>
 138:	2e72                	fld	ft8,280(sp)
 13a:	72630063          	beq	t1,t1,85a <__bootrom_size+0x59e>
 13e:	5f323363          	0x5f323363
 142:	6e69                	lui	t3,0x1a
 144:	7469                	lui	s0,0xffffa
 146:	6300                	flw	fs0,0(a4)
 148:	7568                	flw	fa0,108(a0)
 14a:	6b6e                	flw	fs6,216(sp)
 14c:	635f 756f 746e      	0x746e756f635f
 152:	6c00                	flw	fs0,24(s0)
 154:	20676e6f          	jal	t3,7635a <__stack_top+0x3335a>
 158:	6f6c                	flw	fa1,92(a4)
 15a:	676e                	flw	fa4,216(sp)
 15c:	7520                	flw	fs0,104(a0)
 15e:	736e                	flw	ft6,248(sp)
 160:	6769                	lui	a4,0x1a
 162:	656e                	flw	fa0,216(sp)
 164:	2064                	fld	fs1,192(s0)
 166:	6e69                	lui	t3,0x1a
 168:	0074                	addi	a3,sp,12
 16a:	6975                	lui	s2,0x1d
 16c:	746e                	flw	fs0,248(sp)
 16e:	5f38                	lw	a4,120(a4)
 170:	0074                	addi	a3,sp,12
 172:	6f6c                	flw	fa1,92(a4)
 174:	676e                	flw	fa4,216(sp)
 176:	6c20                	flw	fs0,88(s0)
 178:	20676e6f          	jal	t3,7637e <__stack_top+0x3337e>
 17c:	6e69                	lui	t3,0x1a
 17e:	0074                	addi	a3,sp,12
 180:	33637263          	bgeu	t1,s6,4a4 <__bootrom_size+0x1e8>
 184:	5f32                	lw	t5,44(sp)
 186:	6174                	flw	fa3,68(a0)
 188:	6c62                	flw	fs8,24(sp)
 18a:	0065                	c.nop	25
 18c:	7865                	lui	a6,0xffff9
 18e:	6570                	flw	fa2,76(a0)
 190:	64657463          	bgeu	a0,t1,7d8 <__bootrom_size+0x51c>
 194:	635f 6372 7300      	0x73006372635f
 19a:	6f68                	flw	fa0,92(a4)
 19c:	7472                	flw	fs0,60(sp)
 19e:	6920                	flw	fs0,80(a0)
 1a0:	746e                	flw	fs0,248(sp)
 1a2:	6300                	flw	fs0,0(a4)
 1a4:	6372                	flw	ft6,28(sp)
 1a6:	635f 646d 7500      	0x7500646d635f
 1ac:	6e69                	lui	t3,0x1a
 1ae:	3374                	fld	fa3,224(a4)
 1b0:	5f32                	lw	t5,44(sp)
 1b2:	0074                	addi	a3,sp,12
 1b4:	756a                	flw	fa0,184(sp)
 1b6:	706d                	c.lui	zero,0xffffb
 1b8:	745f 5f6f 6966      	0x69665f6f745f
 1be:	6d72                	flw	fs10,28(sp)
 1c0:	65726177          	0x65726177
 1c4:	7500                	flw	fs0,40(a0)
 1c6:	7261                	lui	tp,0xffff8
 1c8:	5f74                	lw	a3,124(a4)
 1ca:	7570                	flw	fa2,108(a0)
 1cc:	6374                	flw	fa3,68(a4)
	...

Disassembly of section .debug_loc:

00000000 <.debug_loc>:
   0:	0000                	unimp
   2:	0000                	unimp
   4:	00a4                	addi	s1,sp,72
   6:	0000                	unimp
   8:	0002                	c.slli64	zero
   a:	9f30                	0x9f30
   c:	00c4                	addi	s1,sp,68
   e:	0000                	unimp
  10:	01a4                	addi	s1,sp,200
  12:	0000                	unimp
  14:	0001                	nop
  16:	0001b45b          	0x1b45b
  1a:	c000                	sw	s0,0(s0)
  1c:	0001                	nop
  1e:	0100                	addi	s0,sp,128
  20:	5b00                	lw	s0,48(a4)
	...
  2e:	011c                	addi	a5,sp,128
  30:	0000                	unimp
  32:	0002                	c.slli64	zero
  34:	9f30                	0x9f30
  36:	011c                	addi	a5,sp,128
  38:	0000                	unimp
  3a:	013c                	addi	a5,sp,136
  3c:	0000                	unimp
  3e:	0001                	nop
  40:	3c5c                	fld	fa5,184(s0)
  42:	0001                	nop
  44:	5800                	lw	s0,48(s0)
  46:	0001                	nop
  48:	0300                	addi	s0,sp,384
  4a:	7c00                	flw	fs0,56(s0)
  4c:	9f7f                	0x9f7f
  4e:	0158                	addi	a4,sp,132
  50:	0000                	unimp
  52:	0190                	addi	a2,sp,192
  54:	0000                	unimp
  56:	0001                	nop
  58:	b45c                	fsd	fa5,168(s0)
  5a:	0001                	nop
  5c:	c000                	sw	s0,0(s0)
  5e:	0001                	nop
  60:	0100                	addi	s0,sp,128
  62:	5c00                	lw	s0,56(s0)
	...
  6c:	01ec                	addi	a1,sp,204
  6e:	0000                	unimp
  70:	00000283          	lb	t0,0(zero) # 0 <__bootrom_size-0x2bc>
  74:	0001                	nop
  76:	005f 0000 0000      	0x5f
  7c:	0000                	unimp
  7e:	0000                	unimp
  80:	0000                	unimp
  82:	1c00                	addi	s0,sp,560
  84:	0001                	nop
  86:	0300                	addi	s0,sp,384
  88:	0900                	addi	s0,sp,144
  8a:	9fff                	0x9fff
  8c:	011c                	addi	a5,sp,128
  8e:	0000                	unimp
  90:	0140                	addi	s0,sp,132
  92:	0000                	unimp
  94:	0001                	nop
  96:	585e                	lw	a6,244(sp)
  98:	0001                	nop
  9a:	9000                	0x9000
  9c:	0001                	nop
  9e:	0100                	addi	s0,sp,128
  a0:	5e00                	lw	s0,56(a2)
  a2:	01b4                	addi	a3,sp,200
  a4:	0000                	unimp
  a6:	01c0                	addi	s0,sp,196
  a8:	0000                	unimp
  aa:	0001                	nop
  ac:	005e                	c.slli	zero,0x17
	...
  b6:	0000                	unimp
  b8:	9000                	0x9000
  ba:	0000                	unimp
  bc:	0300                	addi	s0,sp,384
  be:	0800                	addi	s0,sp,16
  c0:	9f41                	0x9f41
  c2:	0090                	addi	a2,sp,64
  c4:	0000                	unimp
  c6:	00e0                	addi	s0,sp,76
  c8:	0000                	unimp
  ca:	42080003          	lb	zero,1056(a6) # ffff9420 <__stack_top+0xfffb6420>
  ce:	e09f 0000 1c00      	0x1c000000e09f
  d4:	0001                	nop
  d6:	0300                	addi	s0,sp,384
  d8:	0800                	addi	s0,sp,16
  da:	011c9f43          	fmadd.s	ft10,fs9,fa7,ft0,rtz
  de:	0000                	unimp
  e0:	00000283          	lb	t0,0(zero) # 0 <__bootrom_size-0x2bc>
  e4:	0001                	nop
  e6:	0055                	c.nop	21
  e8:	0000                	unimp
  ea:	0000                	unimp
  ec:	0000                	unimp
  ee:	a000                	fsd	fs0,0(s0)
  f0:	0001                	nop
  f2:	b400                	fsd	fs0,40(s0)
  f4:	0001                	nop
  f6:	0100                	addi	s0,sp,128
  f8:	5d00                	lw	s0,56(a0)
  fa:	01c0                	addi	s0,sp,196
  fc:	0000                	unimp
  fe:	01cc                	addi	a1,sp,196
 100:	0000                	unimp
 102:	0001                	nop
 104:	005d                	c.nop	23
 106:	0000                	unimp
 108:	0000                	unimp
 10a:	0000                	unimp
 10c:	7000                	flw	fs0,32(s0)
 10e:	0000                	unimp
 110:	7400                	flw	fs0,40(s0)
 112:	0000                	unimp
 114:	0100                	addi	s0,sp,128
 116:	5f00                	lw	s0,56(a4)
	...
 120:	0098                	addi	a4,sp,64
 122:	0000                	unimp
 124:	00a4                	addi	s1,sp,72
 126:	0000                	unimp
 128:	0002                	c.slli64	zero
 12a:	9f30                	0x9f30
	...
 134:	00b4                	addi	a3,sp,72
 136:	0000                	unimp
 138:	00b8                	addi	a4,sp,72
 13a:	0000                	unimp
 13c:	0001                	nop
 13e:	005f 0000 0000      	0x5f
 144:	0000                	unimp
 146:	3400                	fld	fs0,40(s0)
 148:	0001                	nop
 14a:	5000                	lw	s0,32(s0)
 14c:	0001                	nop
 14e:	0100                	addi	s0,sp,128
 150:	5f00                	lw	s0,56(a4)
 152:	0150                	addi	a2,sp,132
 154:	0000                	unimp
 156:	015c                	addi	a5,sp,132
 158:	0000                	unimp
 15a:	0002                	c.slli64	zero
 15c:	7f7c                	flw	fa5,124(a4)
	...
 166:	014c                	addi	a1,sp,132
 168:	0000                	unimp
 16a:	0150                	addi	a2,sp,132
 16c:	0000                	unimp
 16e:	0001                	nop
 170:	505f 0001 5800      	0x58000001505f
 176:	0001                	nop
 178:	0200                	addi	s0,sp,256
 17a:	7c00                	flw	fs0,56(s0)
 17c:	007f                	0x7f
 17e:	0000                	unimp
 180:	0000                	unimp
 182:	0000                	unimp
 184:	dc00                	sw	s0,56(s0)
 186:	0001                	nop
 188:	e000                	fsw	fs0,0(s0)
 18a:	0001                	nop
 18c:	0100                	addi	s0,sp,128
 18e:	5d00                	lw	s0,56(a0)
	...
 19c:	001c                	0x1c
 19e:	0000                	unimp
 1a0:	0002                	c.slli64	zero
 1a2:	9f30                	0x9f30
 1a4:	001c                	0x1c
 1a6:	0000                	unimp
 1a8:	004c                	addi	a1,sp,4
 1aa:	0000                	unimp
 1ac:	0001                	nop
 1ae:	0000005b          	0x5b
 1b2:	0000                	unimp
 1b4:	0000                	unimp
 1b6:	1c00                	addi	s0,sp,560
 1b8:	0000                	unimp
 1ba:	2400                	fld	fs0,8(s0)
 1bc:	0000                	unimp
 1be:	0100                	addi	s0,sp,128
 1c0:	5b00                	lw	s0,48(a4)
	...
 1ca:	001c                	0x1c
 1cc:	0000                	unimp
 1ce:	0024                	addi	s1,sp,8
 1d0:	0000                	unimp
 1d2:	0002                	c.slli64	zero
 1d4:	9f30                	0x9f30
 1d6:	0024                	addi	s1,sp,8
 1d8:	0000                	unimp
 1da:	002c                	addi	a1,sp,8
 1dc:	0000                	unimp
 1de:	0005                	c.nop	1
 1e0:	7e39                	lui	t3,0xfffee
 1e2:	1c00                	addi	s0,sp,560
 1e4:	2c9f 0000 4c00      	0x4c0000002c9f
 1ea:	0000                	unimp
 1ec:	0500                	addi	s0,sp,640
 1ee:	3800                	fld	fs0,48(s0)
 1f0:	007e                	c.slli	zero,0x1f
 1f2:	9f1c                	0x9f1c
	...
 1fc:	0228                	addi	a0,sp,264
 1fe:	0000                	unimp
 200:	0238                	addi	a4,sp,264
 202:	0000                	unimp
 204:	0001                	nop
 206:	385d                	jal	fffffabc <__stack_top+0xfffbcabc>
 208:	0002                	c.slli64	zero
 20a:	3c00                	fld	fs0,56(s0)
 20c:	0002                	c.slli64	zero
 20e:	0500                	addi	s0,sp,640
 210:	7e00                	flw	fs0,56(a2)
 212:	3800                	fld	fs0,48(s0)
 214:	9f25                	0x9f25
	...
 21e:	0240                	addi	s0,sp,260
 220:	0000                	unimp
 222:	0254                	addi	a3,sp,260
 224:	0000                	unimp
 226:	0001                	nop
 228:	545d                	li	s0,-9
 22a:	0002                	c.slli64	zero
 22c:	5800                	lw	s0,48(s0)
 22e:	0002                	c.slli64	zero
 230:	0500                	addi	s0,sp,640
 232:	7e00                	flw	fs0,56(a2)
 234:	4000                	lw	s0,0(s0)
 236:	9f25                	0x9f25
	...
 240:	025c                	addi	a5,sp,260
 242:	0000                	unimp
 244:	0270                	addi	a2,sp,268
 246:	0000                	unimp
 248:	0001                	nop
 24a:	0000005b          	0x5b
 24e:	0000                	unimp
 250:	0000                	unimp
	...

Disassembly of section .debug_ranges:

00000000 <.debug_ranges>:
   0:	0000                	unimp
   2:	0000                	unimp
   4:	001c                	0x1c
   6:	0000                	unimp
   8:	0024                	addi	s1,sp,8
   a:	0000                	unimp
   c:	004c                	addi	a1,sp,4
	...
  16:	0000                	unimp
  18:	0004                	0x4
  1a:	0000                	unimp
  1c:	000c                	0xc
  1e:	0000                	unimp
  20:	0014                	0x14
  22:	0000                	unimp
  24:	0018                	0x18
  26:	0000                	unimp
  28:	001c                	0x1c
  2a:	0000                	unimp
  2c:	001c                	0x1c
  2e:	0000                	unimp
  30:	0024                	addi	s1,sp,8
  32:	0000                	unimp
  34:	0040                	addi	s0,sp,4
	...
  3e:	0000                	unimp
  40:	0004                	0x4
  42:	0000                	unimp
  44:	000c                	0xc
  46:	0000                	unimp
  48:	0014                	0x14
  4a:	0000                	unimp
  4c:	0018                	0x18
  4e:	0000                	unimp
  50:	001c                	0x1c
  52:	0000                	unimp
  54:	001c                	0x1c
  56:	0000                	unimp
  58:	0024                	addi	s1,sp,8
  5a:	0000                	unimp
  5c:	003c                	addi	a5,sp,8
	...
  66:	0000                	unimp
  68:	0098                	addi	a4,sp,64
  6a:	0000                	unimp
  6c:	0098                	addi	a4,sp,64
  6e:	0000                	unimp
  70:	009c                	addi	a5,sp,64
  72:	0000                	unimp
  74:	00c8                	addi	a0,sp,68
	...
  7e:	0000                	unimp
  80:	009c                	addi	a5,sp,64
  82:	0000                	unimp
  84:	00a0                	addi	s0,sp,72
  86:	0000                	unimp
  88:	00a4                	addi	s1,sp,72
  8a:	0000                	unimp
  8c:	00bc                	addi	a5,sp,72
  8e:	0000                	unimp
  90:	00c0                	addi	s0,sp,68
  92:	0000                	unimp
  94:	00c4                	addi	s1,sp,68
	...
  9e:	0000                	unimp
  a0:	009c                	addi	a5,sp,64
  a2:	0000                	unimp
  a4:	00a0                	addi	s0,sp,72
  a6:	0000                	unimp
  a8:	00a4                	addi	s1,sp,72
  aa:	0000                	unimp
  ac:	00b4                	addi	a3,sp,72
	...
  b6:	0000                	unimp
  b8:	010c                	addi	a1,sp,128
  ba:	0000                	unimp
  bc:	0188                	addi	a0,sp,192
  be:	0000                	unimp
  c0:	01b4                	addi	a3,sp,200
  c2:	0000                	unimp
  c4:	01b8                	addi	a4,sp,200
	...
  ce:	0000                	unimp
  d0:	010c                	addi	a1,sp,128
  d2:	0000                	unimp
  d4:	0110                	addi	a2,sp,128
  d6:	0000                	unimp
  d8:	0124                	addi	s1,sp,136
  da:	0000                	unimp
  dc:	0158                	addi	a4,sp,132
	...
  e6:	0000                	unimp
  e8:	010c                	addi	a1,sp,128
  ea:	0000                	unimp
  ec:	0110                	addi	a2,sp,128
  ee:	0000                	unimp
  f0:	0124                	addi	s1,sp,136
  f2:	0000                	unimp
  f4:	0134                	addi	a3,sp,136
  f6:	0000                	unimp
  f8:	0148                	addi	a0,sp,132
  fa:	0000                	unimp
  fc:	014c                	addi	a1,sp,132
	...
 106:	0000                	unimp
 108:	0134                	addi	a3,sp,136
 10a:	0000                	unimp
 10c:	0138                	addi	a4,sp,136
 10e:	0000                	unimp
 110:	013c                	addi	a5,sp,136
 112:	0000                	unimp
 114:	0148                	addi	a0,sp,132
 116:	0000                	unimp
 118:	014c                	addi	a1,sp,132
 11a:	0000                	unimp
 11c:	0158                	addi	a4,sp,132
	...
 126:	0000                	unimp
 128:	015c                	addi	a5,sp,132
 12a:	0000                	unimp
 12c:	0168                	addi	a0,sp,140
 12e:	0000                	unimp
 130:	016c                	addi	a1,sp,140
 132:	0000                	unimp
 134:	0170                	addi	a2,sp,140
	...
 13e:	0000                	unimp
 140:	01c4                	addi	s1,sp,196
 142:	0000                	unimp
 144:	01c8                	addi	a0,sp,196
 146:	0000                	unimp
 148:	01cc                	addi	a1,sp,196
 14a:	0000                	unimp
 14c:	01e4                	addi	s1,sp,204
 14e:	0000                	unimp
 150:	01e8                	addi	a0,sp,204
 152:	0000                	unimp
 154:	01ec                	addi	a1,sp,204
	...
 15e:	0000                	unimp
 160:	01c4                	addi	s1,sp,196
 162:	0000                	unimp
 164:	01c8                	addi	a0,sp,196
 166:	0000                	unimp
 168:	01cc                	addi	a1,sp,196
 16a:	0000                	unimp
 16c:	01dc                	addi	a5,sp,196
	...
 176:	0000                	unimp
 178:	0204                	addi	s1,sp,256
 17a:	0000                	unimp
 17c:	0214                	addi	a3,sp,256
 17e:	0000                	unimp
 180:	0218                	addi	a4,sp,256
 182:	0000                	unimp
 184:	0220                	addi	s0,sp,264
	...
 18e:	0000                	unimp
 190:	0220                	addi	s0,sp,264
 192:	0000                	unimp
 194:	0224                	addi	s1,sp,264
 196:	0000                	unimp
 198:	0228                	addi	a0,sp,264
 19a:	0000                	unimp
 19c:	023c                	addi	a5,sp,264
	...

Disassembly of section .debug_frame:

00000000 <.debug_frame>:
   0:	000c                	0xc
   2:	0000                	unimp
   4:	ffff                	0xffff
   6:	ffff                	0xffff
   8:	7c010003          	lb	zero,1984(sp) # 13089e <__stack_top+0xed89e>
   c:	0d01                	addi	s10,s10,0
   e:	0002                	c.slli64	zero
  10:	0018                	0x18
  12:	0000                	unimp
  14:	0000                	unimp
  16:	0000                	unimp
  18:	0034                	addi	a3,sp,8
  1a:	0004                	0x4
  1c:	0288                	addi	a0,sp,320
  1e:	0000                	unimp
  20:	f802                	fsw	ft0,48(sp)
  22:	0c0e                	slli	s8,s8,0x3
  24:	814c                	0x814c
  26:	8801                	andi	s0,s0,0
  28:	8902                	jr	s2
  2a:	          	lb	zero,0(zero) # 0 <__bootrom_size-0x2bc>
